
/app/bin_gccgcc9_O2/2023_04_15-Lesson:     file format elf64-x86-64


Disassembly of section .init:

0000000000001000 <_init>:
    1000:	f3 0f 1e fa          	endbr64 
    1004:	48 83 ec 08          	sub    $0x8,%rsp
    1008:	48 8b 05 d9 2f 00 00 	mov    0x2fd9(%rip),%rax        # 3fe8 <__gmon_start__>
    100f:	48 85 c0             	test   %rax,%rax
    1012:	74 02                	je     1016 <_init+0x16>
    1014:	ff d0                	callq  *%rax
    1016:	48 83 c4 08          	add    $0x8,%rsp
    101a:	c3                   	retq   

Disassembly of section .plt:

0000000000001020 <.plt>:
    1020:	ff 35 8a 2f 00 00    	pushq  0x2f8a(%rip)        # 3fb0 <_GLOBAL_OFFSET_TABLE_+0x8>
    1026:	f2 ff 25 8b 2f 00 00 	bnd jmpq *0x2f8b(%rip)        # 3fb8 <_GLOBAL_OFFSET_TABLE_+0x10>
    102d:	0f 1f 00             	nopl   (%rax)
    1030:	f3 0f 1e fa          	endbr64 
    1034:	68 00 00 00 00       	pushq  $0x0
    1039:	f2 e9 e1 ff ff ff    	bnd jmpq 1020 <.plt>
    103f:	90                   	nop
    1040:	f3 0f 1e fa          	endbr64 
    1044:	68 01 00 00 00       	pushq  $0x1
    1049:	f2 e9 d1 ff ff ff    	bnd jmpq 1020 <.plt>
    104f:	90                   	nop
    1050:	f3 0f 1e fa          	endbr64 
    1054:	68 02 00 00 00       	pushq  $0x2
    1059:	f2 e9 c1 ff ff ff    	bnd jmpq 1020 <.plt>
    105f:	90                   	nop

Disassembly of section .plt.got:

0000000000001060 <__cxa_finalize@plt>:
    1060:	f3 0f 1e fa          	endbr64 
    1064:	f2 ff 25 8d 2f 00 00 	bnd jmpq *0x2f8d(%rip)        # 3ff8 <__cxa_finalize@GLIBC_2.2.5>
    106b:	0f 1f 44 00 00       	nopl   0x0(%rax,%rax,1)

Disassembly of section .plt.sec:

0000000000001070 <putc@plt>:
    1070:	f3 0f 1e fa          	endbr64 
    1074:	f2 ff 25 45 2f 00 00 	bnd jmpq *0x2f45(%rip)        # 3fc0 <putc@GLIBC_2.2.5>
    107b:	0f 1f 44 00 00       	nopl   0x0(%rax,%rax,1)

0000000000001080 <__printf_chk@plt>:
    1080:	f3 0f 1e fa          	endbr64 
    1084:	f2 ff 25 3d 2f 00 00 	bnd jmpq *0x2f3d(%rip)        # 3fc8 <__printf_chk@GLIBC_2.3.4>
    108b:	0f 1f 44 00 00       	nopl   0x0(%rax,%rax,1)

0000000000001090 <getc@plt>:
    1090:	f3 0f 1e fa          	endbr64 
    1094:	f2 ff 25 35 2f 00 00 	bnd jmpq *0x2f35(%rip)        # 3fd0 <getc@GLIBC_2.2.5>
    109b:	0f 1f 44 00 00       	nopl   0x0(%rax,%rax,1)

Disassembly of section .text:

00000000000010a0 <main>:
    10a0:	f3 0f 1e fa          	endbr64 
    10a4:	41 56                	push   %r14
    10a6:	41 55                	push   %r13
    10a8:	45 31 ed             	xor    %r13d,%r13d
    10ab:	41 54                	push   %r12
    10ad:	55                   	push   %rbp
    10ae:	31 ed                	xor    %ebp,%ebp
    10b0:	53                   	push   %rbx
    10b1:	0f 1f 80 00 00 00 00 	nopl   0x0(%rax)
    10b8:	48 8b 3d 61 2f 00 00 	mov    0x2f61(%rip),%rdi        # 4020 <stdin@@GLIBC_2.2.5>
    10bf:	e8 cc ff ff ff       	callq  1090 <getc@plt>
    10c4:	89 c7                	mov    %eax,%edi
    10c6:	83 f8 ff             	cmp    $0xffffffff,%eax
    10c9:	0f 84 a1 00 00 00    	je     1170 <main+0xd0>
    10cf:	83 f8 0d             	cmp    $0xd,%eax
    10d2:	74 51                	je     1125 <main+0x85>
    10d4:	7f 62                	jg     1138 <main+0x98>
    10d6:	83 f8 09             	cmp    $0x9,%eax
    10d9:	75 45                	jne    1120 <main+0x80>
    10db:	89 e8                	mov    %ebp,%eax
    10dd:	41 bc 08 00 00 00    	mov    $0x8,%r12d
    10e3:	31 db                	xor    %ebx,%ebx
    10e5:	83 e0 07             	and    $0x7,%eax
    10e8:	4c 8d 35 15 0f 00 00 	lea    0xf15(%rip),%r14        # 2004 <_IO_stdin_used+0x4>
    10ef:	41 29 c4             	sub    %eax,%r12d
    10f2:	66 0f 1f 44 00 00    	nopw   0x0(%rax,%rax,1)
    10f8:	4c 89 f6             	mov    %r14,%rsi
    10fb:	bf 01 00 00 00       	mov    $0x1,%edi
    1100:	31 c0                	xor    %eax,%eax
    1102:	83 c3 01             	add    $0x1,%ebx
    1105:	e8 76 ff ff ff       	callq  1080 <__printf_chk@plt>
    110a:	41 39 dc             	cmp    %ebx,%r12d
    110d:	75 e9                	jne    10f8 <main+0x58>
    110f:	44 01 e5             	add    %r12d,%ebp
    1112:	83 fd 50             	cmp    $0x50,%ebp
    1115:	41 0f 44 ed          	cmove  %r13d,%ebp
    1119:	eb 9d                	jmp    10b8 <main+0x18>
    111b:	0f 1f 44 00 00       	nopl   0x0(%rax,%rax,1)
    1120:	83 f8 0a             	cmp    $0xa,%eax
    1123:	75 33                	jne    1158 <main+0xb8>
    1125:	48 8b 35 e4 2e 00 00 	mov    0x2ee4(%rip),%rsi        # 4010 <stdout@@GLIBC_2.2.5>
    112c:	31 ed                	xor    %ebp,%ebp
    112e:	e8 3d ff ff ff       	callq  1070 <putc@plt>
    1133:	eb 83                	jmp    10b8 <main+0x18>
    1135:	0f 1f 00             	nopl   (%rax)
    1138:	83 f8 20             	cmp    $0x20,%eax
    113b:	75 1b                	jne    1158 <main+0xb8>
    113d:	48 8d 35 c0 0e 00 00 	lea    0xec0(%rip),%rsi        # 2004 <_IO_stdin_used+0x4>
    1144:	bf 01 00 00 00       	mov    $0x1,%edi
    1149:	31 c0                	xor    %eax,%eax
    114b:	83 c5 01             	add    $0x1,%ebp
    114e:	e8 2d ff ff ff       	callq  1080 <__printf_chk@plt>
    1153:	eb bd                	jmp    1112 <main+0x72>
    1155:	0f 1f 00             	nopl   (%rax)
    1158:	48 8b 35 b1 2e 00 00 	mov    0x2eb1(%rip),%rsi        # 4010 <stdout@@GLIBC_2.2.5>
    115f:	83 c5 01             	add    $0x1,%ebp
    1162:	e8 09 ff ff ff       	callq  1070 <putc@plt>
    1167:	eb a9                	jmp    1112 <main+0x72>
    1169:	0f 1f 80 00 00 00 00 	nopl   0x0(%rax)
    1170:	5b                   	pop    %rbx
    1171:	31 c0                	xor    %eax,%eax
    1173:	5d                   	pop    %rbp
    1174:	41 5c                	pop    %r12
    1176:	41 5d                	pop    %r13
    1178:	41 5e                	pop    %r14
    117a:	c3                   	retq   
    117b:	0f 1f 44 00 00       	nopl   0x0(%rax,%rax,1)

0000000000001180 <_start>:
    1180:	f3 0f 1e fa          	endbr64 
    1184:	31 ed                	xor    %ebp,%ebp
    1186:	49 89 d1             	mov    %rdx,%r9
    1189:	5e                   	pop    %rsi
    118a:	48 89 e2             	mov    %rsp,%rdx
    118d:	48 83 e4 f0          	and    $0xfffffffffffffff0,%rsp
    1191:	50                   	push   %rax
    1192:	54                   	push   %rsp
    1193:	4c 8d 05 46 01 00 00 	lea    0x146(%rip),%r8        # 12e0 <__libc_csu_fini>
    119a:	48 8d 0d cf 00 00 00 	lea    0xcf(%rip),%rcx        # 1270 <__libc_csu_init>
    11a1:	48 8d 3d f8 fe ff ff 	lea    -0x108(%rip),%rdi        # 10a0 <main>
    11a8:	ff 15 32 2e 00 00    	callq  *0x2e32(%rip)        # 3fe0 <__libc_start_main@GLIBC_2.2.5>
    11ae:	f4                   	hlt    
    11af:	90                   	nop

00000000000011b0 <deregister_tm_clones>:
    11b0:	48 8d 3d 59 2e 00 00 	lea    0x2e59(%rip),%rdi        # 4010 <stdout@@GLIBC_2.2.5>
    11b7:	48 8d 05 52 2e 00 00 	lea    0x2e52(%rip),%rax        # 4010 <stdout@@GLIBC_2.2.5>
    11be:	48 39 f8             	cmp    %rdi,%rax
    11c1:	74 15                	je     11d8 <deregister_tm_clones+0x28>
    11c3:	48 8b 05 0e 2e 00 00 	mov    0x2e0e(%rip),%rax        # 3fd8 <_ITM_deregisterTMCloneTable>
    11ca:	48 85 c0             	test   %rax,%rax
    11cd:	74 09                	je     11d8 <deregister_tm_clones+0x28>
    11cf:	ff e0                	jmpq   *%rax
    11d1:	0f 1f 80 00 00 00 00 	nopl   0x0(%rax)
    11d8:	c3                   	retq   
    11d9:	0f 1f 80 00 00 00 00 	nopl   0x0(%rax)

00000000000011e0 <register_tm_clones>:
    11e0:	48 8d 3d 29 2e 00 00 	lea    0x2e29(%rip),%rdi        # 4010 <stdout@@GLIBC_2.2.5>
    11e7:	48 8d 35 22 2e 00 00 	lea    0x2e22(%rip),%rsi        # 4010 <stdout@@GLIBC_2.2.5>
    11ee:	48 29 fe             	sub    %rdi,%rsi
    11f1:	48 89 f0             	mov    %rsi,%rax
    11f4:	48 c1 ee 3f          	shr    $0x3f,%rsi
    11f8:	48 c1 f8 03          	sar    $0x3,%rax
    11fc:	48 01 c6             	add    %rax,%rsi
    11ff:	48 d1 fe             	sar    %rsi
    1202:	74 14                	je     1218 <register_tm_clones+0x38>
    1204:	48 8b 05 e5 2d 00 00 	mov    0x2de5(%rip),%rax        # 3ff0 <_ITM_registerTMCloneTable>
    120b:	48 85 c0             	test   %rax,%rax
    120e:	74 08                	je     1218 <register_tm_clones+0x38>
    1210:	ff e0                	jmpq   *%rax
    1212:	66 0f 1f 44 00 00    	nopw   0x0(%rax,%rax,1)
    1218:	c3                   	retq   
    1219:	0f 1f 80 00 00 00 00 	nopl   0x0(%rax)

0000000000001220 <__do_global_dtors_aux>:
    1220:	f3 0f 1e fa          	endbr64 
    1224:	80 3d fd 2d 00 00 00 	cmpb   $0x0,0x2dfd(%rip)        # 4028 <completed.0>
    122b:	75 2b                	jne    1258 <__do_global_dtors_aux+0x38>
    122d:	55                   	push   %rbp
    122e:	48 83 3d c2 2d 00 00 	cmpq   $0x0,0x2dc2(%rip)        # 3ff8 <__cxa_finalize@GLIBC_2.2.5>
    1235:	00 
    1236:	48 89 e5             	mov    %rsp,%rbp
    1239:	74 0c                	je     1247 <__do_global_dtors_aux+0x27>
    123b:	48 8b 3d c6 2d 00 00 	mov    0x2dc6(%rip),%rdi        # 4008 <__dso_handle>
    1242:	e8 19 fe ff ff       	callq  1060 <__cxa_finalize@plt>
    1247:	e8 64 ff ff ff       	callq  11b0 <deregister_tm_clones>
    124c:	c6 05 d5 2d 00 00 01 	movb   $0x1,0x2dd5(%rip)        # 4028 <completed.0>
    1253:	5d                   	pop    %rbp
    1254:	c3                   	retq   
    1255:	0f 1f 00             	nopl   (%rax)
    1258:	c3                   	retq   
    1259:	0f 1f 80 00 00 00 00 	nopl   0x0(%rax)

0000000000001260 <frame_dummy>:
    1260:	f3 0f 1e fa          	endbr64 
    1264:	e9 77 ff ff ff       	jmpq   11e0 <register_tm_clones>
    1269:	0f 1f 80 00 00 00 00 	nopl   0x0(%rax)

0000000000001270 <__libc_csu_init>:
    1270:	f3 0f 1e fa          	endbr64 
    1274:	41 57                	push   %r15
    1276:	4c 8d 3d 2b 2b 00 00 	lea    0x2b2b(%rip),%r15        # 3da8 <__frame_dummy_init_array_entry>
    127d:	41 56                	push   %r14
    127f:	49 89 d6             	mov    %rdx,%r14
    1282:	41 55                	push   %r13
    1284:	49 89 f5             	mov    %rsi,%r13
    1287:	41 54                	push   %r12
    1289:	41 89 fc             	mov    %edi,%r12d
    128c:	55                   	push   %rbp
    128d:	48 8d 2d 1c 2b 00 00 	lea    0x2b1c(%rip),%rbp        # 3db0 <__do_global_dtors_aux_fini_array_entry>
    1294:	53                   	push   %rbx
    1295:	4c 29 fd             	sub    %r15,%rbp
    1298:	48 83 ec 08          	sub    $0x8,%rsp
    129c:	e8 5f fd ff ff       	callq  1000 <_init>
    12a1:	48 c1 fd 03          	sar    $0x3,%rbp
    12a5:	74 1f                	je     12c6 <__libc_csu_init+0x56>
    12a7:	31 db                	xor    %ebx,%ebx
    12a9:	0f 1f 80 00 00 00 00 	nopl   0x0(%rax)
    12b0:	4c 89 f2             	mov    %r14,%rdx
    12b3:	4c 89 ee             	mov    %r13,%rsi
    12b6:	44 89 e7             	mov    %r12d,%edi
    12b9:	41 ff 14 df          	callq  *(%r15,%rbx,8)
    12bd:	48 83 c3 01          	add    $0x1,%rbx
    12c1:	48 39 dd             	cmp    %rbx,%rbp
    12c4:	75 ea                	jne    12b0 <__libc_csu_init+0x40>
    12c6:	48 83 c4 08          	add    $0x8,%rsp
    12ca:	5b                   	pop    %rbx
    12cb:	5d                   	pop    %rbp
    12cc:	41 5c                	pop    %r12
    12ce:	41 5d                	pop    %r13
    12d0:	41 5e                	pop    %r14
    12d2:	41 5f                	pop    %r15
    12d4:	c3                   	retq   
    12d5:	66 66 2e 0f 1f 84 00 	data16 nopw %cs:0x0(%rax,%rax,1)
    12dc:	00 00 00 00 

00000000000012e0 <__libc_csu_fini>:
    12e0:	f3 0f 1e fa          	endbr64 
    12e4:	c3                   	retq   

Disassembly of section .fini:

00000000000012e8 <_fini>:
    12e8:	f3 0f 1e fa          	endbr64 
    12ec:	48 83 ec 08          	sub    $0x8,%rsp
    12f0:	48 83 c4 08          	add    $0x8,%rsp
    12f4:	c3                   	retq   
