
/app/bin_gccgcc8_O1/tcp_half_duplex_client:     file format elf64-x86-64


Disassembly of section .init:

0000000000001000 <_init>:
    1000:	f3 0f 1e fa          	endbr64 
    1004:	48 83 ec 08          	sub    $0x8,%rsp
    1008:	48 8b 05 d9 2f 00 00 	mov    0x2fd9(%rip),%rax        # 3fe8 <__gmon_start__>
    100f:	48 85 c0             	test   %rax,%rax
    1012:	74 02                	je     1016 <_init+0x16>
    1014:	ff d0                	callq  *%rax
    1016:	48 83 c4 08          	add    $0x8,%rsp
    101a:	c3                   	retq   

Disassembly of section .plt:

0000000000001020 <.plt>:
    1020:	ff 35 4a 2f 00 00    	pushq  0x2f4a(%rip)        # 3f70 <_GLOBAL_OFFSET_TABLE_+0x8>
    1026:	f2 ff 25 4b 2f 00 00 	bnd jmpq *0x2f4b(%rip)        # 3f78 <_GLOBAL_OFFSET_TABLE_+0x10>
    102d:	0f 1f 00             	nopl   (%rax)
    1030:	f3 0f 1e fa          	endbr64 
    1034:	68 00 00 00 00       	pushq  $0x0
    1039:	f2 e9 e1 ff ff ff    	bnd jmpq 1020 <.plt>
    103f:	90                   	nop
    1040:	f3 0f 1e fa          	endbr64 
    1044:	68 01 00 00 00       	pushq  $0x1
    1049:	f2 e9 d1 ff ff ff    	bnd jmpq 1020 <.plt>
    104f:	90                   	nop
    1050:	f3 0f 1e fa          	endbr64 
    1054:	68 02 00 00 00       	pushq  $0x2
    1059:	f2 e9 c1 ff ff ff    	bnd jmpq 1020 <.plt>
    105f:	90                   	nop
    1060:	f3 0f 1e fa          	endbr64 
    1064:	68 03 00 00 00       	pushq  $0x3
    1069:	f2 e9 b1 ff ff ff    	bnd jmpq 1020 <.plt>
    106f:	90                   	nop
    1070:	f3 0f 1e fa          	endbr64 
    1074:	68 04 00 00 00       	pushq  $0x4
    1079:	f2 e9 a1 ff ff ff    	bnd jmpq 1020 <.plt>
    107f:	90                   	nop
    1080:	f3 0f 1e fa          	endbr64 
    1084:	68 05 00 00 00       	pushq  $0x5
    1089:	f2 e9 91 ff ff ff    	bnd jmpq 1020 <.plt>
    108f:	90                   	nop
    1090:	f3 0f 1e fa          	endbr64 
    1094:	68 06 00 00 00       	pushq  $0x6
    1099:	f2 e9 81 ff ff ff    	bnd jmpq 1020 <.plt>
    109f:	90                   	nop
    10a0:	f3 0f 1e fa          	endbr64 
    10a4:	68 07 00 00 00       	pushq  $0x7
    10a9:	f2 e9 71 ff ff ff    	bnd jmpq 1020 <.plt>
    10af:	90                   	nop
    10b0:	f3 0f 1e fa          	endbr64 
    10b4:	68 08 00 00 00       	pushq  $0x8
    10b9:	f2 e9 61 ff ff ff    	bnd jmpq 1020 <.plt>
    10bf:	90                   	nop
    10c0:	f3 0f 1e fa          	endbr64 
    10c4:	68 09 00 00 00       	pushq  $0x9
    10c9:	f2 e9 51 ff ff ff    	bnd jmpq 1020 <.plt>
    10cf:	90                   	nop
    10d0:	f3 0f 1e fa          	endbr64 
    10d4:	68 0a 00 00 00       	pushq  $0xa
    10d9:	f2 e9 41 ff ff ff    	bnd jmpq 1020 <.plt>
    10df:	90                   	nop

Disassembly of section .plt.got:

00000000000010e0 <__cxa_finalize@plt>:
    10e0:	f3 0f 1e fa          	endbr64 
    10e4:	f2 ff 25 0d 2f 00 00 	bnd jmpq *0x2f0d(%rip)        # 3ff8 <__cxa_finalize@GLIBC_2.2.5>
    10eb:	0f 1f 44 00 00       	nopl   0x0(%rax,%rax,1)

Disassembly of section .plt.sec:

00000000000010f0 <recv@plt>:
    10f0:	f3 0f 1e fa          	endbr64 
    10f4:	f2 ff 25 85 2e 00 00 	bnd jmpq *0x2e85(%rip)        # 3f80 <recv@GLIBC_2.2.5>
    10fb:	0f 1f 44 00 00       	nopl   0x0(%rax,%rax,1)

0000000000001100 <puts@plt>:
    1100:	f3 0f 1e fa          	endbr64 
    1104:	f2 ff 25 7d 2e 00 00 	bnd jmpq *0x2e7d(%rip)        # 3f88 <puts@GLIBC_2.2.5>
    110b:	0f 1f 44 00 00       	nopl   0x0(%rax,%rax,1)

0000000000001110 <strlen@plt>:
    1110:	f3 0f 1e fa          	endbr64 
    1114:	f2 ff 25 75 2e 00 00 	bnd jmpq *0x2e75(%rip)        # 3f90 <strlen@GLIBC_2.2.5>
    111b:	0f 1f 44 00 00       	nopl   0x0(%rax,%rax,1)

0000000000001120 <send@plt>:
    1120:	f3 0f 1e fa          	endbr64 
    1124:	f2 ff 25 6d 2e 00 00 	bnd jmpq *0x2e6d(%rip)        # 3f98 <send@GLIBC_2.2.5>
    112b:	0f 1f 44 00 00       	nopl   0x0(%rax,%rax,1)

0000000000001130 <memset@plt>:
    1130:	f3 0f 1e fa          	endbr64 
    1134:	f2 ff 25 65 2e 00 00 	bnd jmpq *0x2e65(%rip)        # 3fa0 <memset@GLIBC_2.2.5>
    113b:	0f 1f 44 00 00       	nopl   0x0(%rax,%rax,1)

0000000000001140 <fgets@plt>:
    1140:	f3 0f 1e fa          	endbr64 
    1144:	f2 ff 25 5d 2e 00 00 	bnd jmpq *0x2e5d(%rip)        # 3fa8 <fgets@GLIBC_2.2.5>
    114b:	0f 1f 44 00 00       	nopl   0x0(%rax,%rax,1)

0000000000001150 <__printf_chk@plt>:
    1150:	f3 0f 1e fa          	endbr64 
    1154:	f2 ff 25 55 2e 00 00 	bnd jmpq *0x2e55(%rip)        # 3fb0 <__printf_chk@GLIBC_2.3.4>
    115b:	0f 1f 44 00 00       	nopl   0x0(%rax,%rax,1)

0000000000001160 <perror@plt>:
    1160:	f3 0f 1e fa          	endbr64 
    1164:	f2 ff 25 4d 2e 00 00 	bnd jmpq *0x2e4d(%rip)        # 3fb8 <perror@GLIBC_2.2.5>
    116b:	0f 1f 44 00 00       	nopl   0x0(%rax,%rax,1)

0000000000001170 <exit@plt>:
    1170:	f3 0f 1e fa          	endbr64 
    1174:	f2 ff 25 45 2e 00 00 	bnd jmpq *0x2e45(%rip)        # 3fc0 <exit@GLIBC_2.2.5>
    117b:	0f 1f 44 00 00       	nopl   0x0(%rax,%rax,1)

0000000000001180 <connect@plt>:
    1180:	f3 0f 1e fa          	endbr64 
    1184:	f2 ff 25 3d 2e 00 00 	bnd jmpq *0x2e3d(%rip)        # 3fc8 <connect@GLIBC_2.2.5>
    118b:	0f 1f 44 00 00       	nopl   0x0(%rax,%rax,1)

0000000000001190 <socket@plt>:
    1190:	f3 0f 1e fa          	endbr64 
    1194:	f2 ff 25 35 2e 00 00 	bnd jmpq *0x2e35(%rip)        # 3fd0 <socket@GLIBC_2.2.5>
    119b:	0f 1f 44 00 00       	nopl   0x0(%rax,%rax,1)

Disassembly of section .text:

00000000000011a0 <_start>:
    11a0:	f3 0f 1e fa          	endbr64 
    11a4:	31 ed                	xor    %ebp,%ebp
    11a6:	49 89 d1             	mov    %rdx,%r9
    11a9:	5e                   	pop    %rsi
    11aa:	48 89 e2             	mov    %rsp,%rdx
    11ad:	48 83 e4 f0          	and    $0xfffffffffffffff0,%rsp
    11b1:	50                   	push   %rax
    11b2:	54                   	push   %rsp
    11b3:	4c 8d 05 a6 02 00 00 	lea    0x2a6(%rip),%r8        # 1460 <__libc_csu_fini>
    11ba:	48 8d 0d 2f 02 00 00 	lea    0x22f(%rip),%rcx        # 13f0 <__libc_csu_init>
    11c1:	48 8d 3d e1 00 00 00 	lea    0xe1(%rip),%rdi        # 12a9 <main>
    11c8:	ff 15 12 2e 00 00    	callq  *0x2e12(%rip)        # 3fe0 <__libc_start_main@GLIBC_2.2.5>
    11ce:	f4                   	hlt    
    11cf:	90                   	nop

00000000000011d0 <deregister_tm_clones>:
    11d0:	48 8d 3d 39 2e 00 00 	lea    0x2e39(%rip),%rdi        # 4010 <stdin@@GLIBC_2.2.5>
    11d7:	48 8d 05 32 2e 00 00 	lea    0x2e32(%rip),%rax        # 4010 <stdin@@GLIBC_2.2.5>
    11de:	48 39 f8             	cmp    %rdi,%rax
    11e1:	74 15                	je     11f8 <deregister_tm_clones+0x28>
    11e3:	48 8b 05 ee 2d 00 00 	mov    0x2dee(%rip),%rax        # 3fd8 <_ITM_deregisterTMCloneTable>
    11ea:	48 85 c0             	test   %rax,%rax
    11ed:	74 09                	je     11f8 <deregister_tm_clones+0x28>
    11ef:	ff e0                	jmpq   *%rax
    11f1:	0f 1f 80 00 00 00 00 	nopl   0x0(%rax)
    11f8:	c3                   	retq   
    11f9:	0f 1f 80 00 00 00 00 	nopl   0x0(%rax)

0000000000001200 <register_tm_clones>:
    1200:	48 8d 3d 09 2e 00 00 	lea    0x2e09(%rip),%rdi        # 4010 <stdin@@GLIBC_2.2.5>
    1207:	48 8d 35 02 2e 00 00 	lea    0x2e02(%rip),%rsi        # 4010 <stdin@@GLIBC_2.2.5>
    120e:	48 29 fe             	sub    %rdi,%rsi
    1211:	48 89 f0             	mov    %rsi,%rax
    1214:	48 c1 ee 3f          	shr    $0x3f,%rsi
    1218:	48 c1 f8 03          	sar    $0x3,%rax
    121c:	48 01 c6             	add    %rax,%rsi
    121f:	48 d1 fe             	sar    %rsi
    1222:	74 14                	je     1238 <register_tm_clones+0x38>
    1224:	48 8b 05 c5 2d 00 00 	mov    0x2dc5(%rip),%rax        # 3ff0 <_ITM_registerTMCloneTable>
    122b:	48 85 c0             	test   %rax,%rax
    122e:	74 08                	je     1238 <register_tm_clones+0x38>
    1230:	ff e0                	jmpq   *%rax
    1232:	66 0f 1f 44 00 00    	nopw   0x0(%rax,%rax,1)
    1238:	c3                   	retq   
    1239:	0f 1f 80 00 00 00 00 	nopl   0x0(%rax)

0000000000001240 <__do_global_dtors_aux>:
    1240:	f3 0f 1e fa          	endbr64 
    1244:	80 3d cd 2d 00 00 00 	cmpb   $0x0,0x2dcd(%rip)        # 4018 <completed.0>
    124b:	75 2b                	jne    1278 <__do_global_dtors_aux+0x38>
    124d:	55                   	push   %rbp
    124e:	48 83 3d a2 2d 00 00 	cmpq   $0x0,0x2da2(%rip)        # 3ff8 <__cxa_finalize@GLIBC_2.2.5>
    1255:	00 
    1256:	48 89 e5             	mov    %rsp,%rbp
    1259:	74 0c                	je     1267 <__do_global_dtors_aux+0x27>
    125b:	48 8b 3d a6 2d 00 00 	mov    0x2da6(%rip),%rdi        # 4008 <__dso_handle>
    1262:	e8 79 fe ff ff       	callq  10e0 <__cxa_finalize@plt>
    1267:	e8 64 ff ff ff       	callq  11d0 <deregister_tm_clones>
    126c:	c6 05 a5 2d 00 00 01 	movb   $0x1,0x2da5(%rip)        # 4018 <completed.0>
    1273:	5d                   	pop    %rbp
    1274:	c3                   	retq   
    1275:	0f 1f 00             	nopl   (%rax)
    1278:	c3                   	retq   
    1279:	0f 1f 80 00 00 00 00 	nopl   0x0(%rax)

0000000000001280 <frame_dummy>:
    1280:	f3 0f 1e fa          	endbr64 
    1284:	e9 77 ff ff ff       	jmpq   1200 <register_tm_clones>

0000000000001289 <error>:
    1289:	f3 0f 1e fa          	endbr64 
    128d:	50                   	push   %rax
    128e:	58                   	pop    %rax
    128f:	48 83 ec 08          	sub    $0x8,%rsp
    1293:	48 8d 3d 6a 0d 00 00 	lea    0xd6a(%rip),%rdi        # 2004 <_IO_stdin_used+0x4>
    129a:	e8 c1 fe ff ff       	callq  1160 <perror@plt>
    129f:	bf 01 00 00 00       	mov    $0x1,%edi
    12a4:	e8 c7 fe ff ff       	callq  1170 <exit@plt>

00000000000012a9 <main>:
    12a9:	f3 0f 1e fa          	endbr64 
    12ad:	41 54                	push   %r12
    12af:	55                   	push   %rbp
    12b0:	53                   	push   %rbx
    12b1:	4c 8d 9c 24 00 c0 ff 	lea    -0x4000(%rsp),%r11
    12b8:	ff 
    12b9:	48 81 ec 00 10 00 00 	sub    $0x1000,%rsp
    12c0:	48 83 0c 24 00       	orq    $0x0,(%rsp)
    12c5:	4c 39 dc             	cmp    %r11,%rsp
    12c8:	75 ef                	jne    12b9 <main+0x10>
    12ca:	48 81 ec 40 0e 00 00 	sub    $0xe40,%rsp
    12d1:	64 48 8b 04 25 28 00 	mov    %fs:0x28,%rax
    12d8:	00 00 
    12da:	48 89 84 24 38 4e 00 	mov    %rax,0x4e38(%rsp)
    12e1:	00 
    12e2:	31 c0                	xor    %eax,%eax
    12e4:	ba 00 00 00 00       	mov    $0x0,%edx
    12e9:	be 01 00 00 00       	mov    $0x1,%esi
    12ee:	bf 02 00 00 00       	mov    $0x2,%edi
    12f3:	e8 98 fe ff ff       	callq  1190 <socket@plt>
    12f8:	41 89 c4             	mov    %eax,%r12d
    12fb:	48 89 e3             	mov    %rsp,%rbx
    12fe:	48 c7 04 24 00 00 00 	movq   $0x0,(%rsp)
    1305:	00 
    1306:	48 c7 44 24 08 00 00 	movq   $0x0,0x8(%rsp)
    130d:	00 00 
    130f:	66 c7 04 24 02 00    	movw   $0x2,(%rsp)
    1315:	66 c7 44 24 02 1f a4 	movw   $0xa41f,0x2(%rsp)
    131c:	48 8d 3d f8 0c 00 00 	lea    0xcf8(%rip),%rdi        # 201b <_IO_stdin_used+0x1b>
    1323:	e8 d8 fd ff ff       	callq  1100 <puts@plt>
    1328:	ba 10 00 00 00       	mov    $0x10,%edx
    132d:	48 89 de             	mov    %rbx,%rsi
    1330:	44 89 e7             	mov    %r12d,%edi
    1333:	e8 48 fe ff ff       	callq  1180 <connect@plt>
    1338:	48 8d 3d f1 0c 00 00 	lea    0xcf1(%rip),%rdi        # 2030 <_IO_stdin_used+0x30>
    133f:	e8 bc fd ff ff       	callq  1100 <puts@plt>
    1344:	48 8d 6c 24 10       	lea    0x10(%rsp),%rbp
    1349:	ba 10 27 00 00       	mov    $0x2710,%edx
    134e:	be 00 00 00 00       	mov    $0x0,%esi
    1353:	48 89 ef             	mov    %rbp,%rdi
    1356:	e8 d5 fd ff ff       	callq  1130 <memset@plt>
    135b:	48 8d 9c 24 20 27 00 	lea    0x2720(%rsp),%rbx
    1362:	00 
    1363:	ba 10 27 00 00       	mov    $0x2710,%edx
    1368:	be 00 00 00 00       	mov    $0x0,%esi
    136d:	48 89 df             	mov    %rbx,%rdi
    1370:	e8 bb fd ff ff       	callq  1130 <memset@plt>
    1375:	b9 00 00 00 00       	mov    $0x0,%ecx
    137a:	ba 10 27 00 00       	mov    $0x2710,%edx
    137f:	48 89 ee             	mov    %rbp,%rsi
    1382:	44 89 e7             	mov    %r12d,%edi
    1385:	e8 66 fd ff ff       	callq  10f0 <recv@plt>
    138a:	48 89 ea             	mov    %rbp,%rdx
    138d:	48 8d 35 b3 0c 00 00 	lea    0xcb3(%rip),%rsi        # 2047 <_IO_stdin_used+0x47>
    1394:	bf 01 00 00 00       	mov    $0x1,%edi
    1399:	b8 00 00 00 00       	mov    $0x0,%eax
    139e:	e8 ad fd ff ff       	callq  1150 <__printf_chk@plt>
    13a3:	48 8d 35 b3 0c 00 00 	lea    0xcb3(%rip),%rsi        # 205d <_IO_stdin_used+0x5d>
    13aa:	bf 01 00 00 00       	mov    $0x1,%edi
    13af:	b8 00 00 00 00       	mov    $0x0,%eax
    13b4:	e8 97 fd ff ff       	callq  1150 <__printf_chk@plt>
    13b9:	48 8b 15 50 2c 00 00 	mov    0x2c50(%rip),%rdx        # 4010 <stdin@@GLIBC_2.2.5>
    13c0:	be 10 27 00 00       	mov    $0x2710,%esi
    13c5:	48 89 df             	mov    %rbx,%rdi
    13c8:	e8 73 fd ff ff       	callq  1140 <fgets@plt>
    13cd:	48 89 df             	mov    %rbx,%rdi
    13d0:	e8 3b fd ff ff       	callq  1110 <strlen@plt>
    13d5:	48 8d 50 01          	lea    0x1(%rax),%rdx
    13d9:	b9 00 00 00 00       	mov    $0x0,%ecx
    13de:	48 89 de             	mov    %rbx,%rsi
    13e1:	44 89 e7             	mov    %r12d,%edi
    13e4:	e8 37 fd ff ff       	callq  1120 <send@plt>
    13e9:	e9 5b ff ff ff       	jmpq   1349 <main+0xa0>
    13ee:	66 90                	xchg   %ax,%ax

00000000000013f0 <__libc_csu_init>:
    13f0:	f3 0f 1e fa          	endbr64 
    13f4:	41 57                	push   %r15
    13f6:	4c 8d 3d 6b 29 00 00 	lea    0x296b(%rip),%r15        # 3d68 <__frame_dummy_init_array_entry>
    13fd:	41 56                	push   %r14
    13ff:	49 89 d6             	mov    %rdx,%r14
    1402:	41 55                	push   %r13
    1404:	49 89 f5             	mov    %rsi,%r13
    1407:	41 54                	push   %r12
    1409:	41 89 fc             	mov    %edi,%r12d
    140c:	55                   	push   %rbp
    140d:	48 8d 2d 5c 29 00 00 	lea    0x295c(%rip),%rbp        # 3d70 <__do_global_dtors_aux_fini_array_entry>
    1414:	53                   	push   %rbx
    1415:	4c 29 fd             	sub    %r15,%rbp
    1418:	48 83 ec 08          	sub    $0x8,%rsp
    141c:	e8 df fb ff ff       	callq  1000 <_init>
    1421:	48 c1 fd 03          	sar    $0x3,%rbp
    1425:	74 1f                	je     1446 <__libc_csu_init+0x56>
    1427:	31 db                	xor    %ebx,%ebx
    1429:	0f 1f 80 00 00 00 00 	nopl   0x0(%rax)
    1430:	4c 89 f2             	mov    %r14,%rdx
    1433:	4c 89 ee             	mov    %r13,%rsi
    1436:	44 89 e7             	mov    %r12d,%edi
    1439:	41 ff 14 df          	callq  *(%r15,%rbx,8)
    143d:	48 83 c3 01          	add    $0x1,%rbx
    1441:	48 39 dd             	cmp    %rbx,%rbp
    1444:	75 ea                	jne    1430 <__libc_csu_init+0x40>
    1446:	48 83 c4 08          	add    $0x8,%rsp
    144a:	5b                   	pop    %rbx
    144b:	5d                   	pop    %rbp
    144c:	41 5c                	pop    %r12
    144e:	41 5d                	pop    %r13
    1450:	41 5e                	pop    %r14
    1452:	41 5f                	pop    %r15
    1454:	c3                   	retq   
    1455:	66 66 2e 0f 1f 84 00 	data16 nopw %cs:0x0(%rax,%rax,1)
    145c:	00 00 00 00 

0000000000001460 <__libc_csu_fini>:
    1460:	f3 0f 1e fa          	endbr64 
    1464:	c3                   	retq   

Disassembly of section .fini:

0000000000001468 <_fini>:
    1468:	f3 0f 1e fa          	endbr64 
    146c:	48 83 ec 08          	sub    $0x8,%rsp
    1470:	48 83 c4 08          	add    $0x8,%rsp
    1474:	c3                   	retq   
