
/app/bin_gcc9_O1/string_object:     file format elf64-x86-64


Disassembly of section .init:

0000000000001000 <_init>:
    1000:	f3 0f 1e fa          	endbr64 
    1004:	48 83 ec 08          	sub    $0x8,%rsp
    1008:	48 8b 05 d9 2f 00 00 	mov    0x2fd9(%rip),%rax        # 3fe8 <__gmon_start__>
    100f:	48 85 c0             	test   %rax,%rax
    1012:	74 02                	je     1016 <_init+0x16>
    1014:	ff d0                	callq  *%rax
    1016:	48 83 c4 08          	add    $0x8,%rsp
    101a:	c3                   	retq   

Disassembly of section .plt:

0000000000001020 <.plt>:
    1020:	ff 35 72 2f 00 00    	pushq  0x2f72(%rip)        # 3f98 <_GLOBAL_OFFSET_TABLE_+0x8>
    1026:	f2 ff 25 73 2f 00 00 	bnd jmpq *0x2f73(%rip)        # 3fa0 <_GLOBAL_OFFSET_TABLE_+0x10>
    102d:	0f 1f 00             	nopl   (%rax)
    1030:	f3 0f 1e fa          	endbr64 
    1034:	68 00 00 00 00       	pushq  $0x0
    1039:	f2 e9 e1 ff ff ff    	bnd jmpq 1020 <.plt>
    103f:	90                   	nop
    1040:	f3 0f 1e fa          	endbr64 
    1044:	68 01 00 00 00       	pushq  $0x1
    1049:	f2 e9 d1 ff ff ff    	bnd jmpq 1020 <.plt>
    104f:	90                   	nop
    1050:	f3 0f 1e fa          	endbr64 
    1054:	68 02 00 00 00       	pushq  $0x2
    1059:	f2 e9 c1 ff ff ff    	bnd jmpq 1020 <.plt>
    105f:	90                   	nop
    1060:	f3 0f 1e fa          	endbr64 
    1064:	68 03 00 00 00       	pushq  $0x3
    1069:	f2 e9 b1 ff ff ff    	bnd jmpq 1020 <.plt>
    106f:	90                   	nop
    1070:	f3 0f 1e fa          	endbr64 
    1074:	68 04 00 00 00       	pushq  $0x4
    1079:	f2 e9 a1 ff ff ff    	bnd jmpq 1020 <.plt>
    107f:	90                   	nop
    1080:	f3 0f 1e fa          	endbr64 
    1084:	68 05 00 00 00       	pushq  $0x5
    1089:	f2 e9 91 ff ff ff    	bnd jmpq 1020 <.plt>
    108f:	90                   	nop

Disassembly of section .plt.got:

0000000000001090 <__cxa_finalize@plt>:
    1090:	f3 0f 1e fa          	endbr64 
    1094:	f2 ff 25 5d 2f 00 00 	bnd jmpq *0x2f5d(%rip)        # 3ff8 <__cxa_finalize@GLIBC_2.2.5>
    109b:	0f 1f 44 00 00       	nopl   0x0(%rax,%rax,1)

Disassembly of section .plt.sec:

00000000000010a0 <free@plt>:
    10a0:	f3 0f 1e fa          	endbr64 
    10a4:	f2 ff 25 fd 2e 00 00 	bnd jmpq *0x2efd(%rip)        # 3fa8 <free@GLIBC_2.2.5>
    10ab:	0f 1f 44 00 00       	nopl   0x0(%rax,%rax,1)

00000000000010b0 <strcpy@plt>:
    10b0:	f3 0f 1e fa          	endbr64 
    10b4:	f2 ff 25 f5 2e 00 00 	bnd jmpq *0x2ef5(%rip)        # 3fb0 <strcpy@GLIBC_2.2.5>
    10bb:	0f 1f 44 00 00       	nopl   0x0(%rax,%rax,1)

00000000000010c0 <strlen@plt>:
    10c0:	f3 0f 1e fa          	endbr64 
    10c4:	f2 ff 25 ed 2e 00 00 	bnd jmpq *0x2eed(%rip)        # 3fb8 <strlen@GLIBC_2.2.5>
    10cb:	0f 1f 44 00 00       	nopl   0x0(%rax,%rax,1)

00000000000010d0 <__stack_chk_fail@plt>:
    10d0:	f3 0f 1e fa          	endbr64 
    10d4:	f2 ff 25 e5 2e 00 00 	bnd jmpq *0x2ee5(%rip)        # 3fc0 <__stack_chk_fail@GLIBC_2.4>
    10db:	0f 1f 44 00 00       	nopl   0x0(%rax,%rax,1)

00000000000010e0 <malloc@plt>:
    10e0:	f3 0f 1e fa          	endbr64 
    10e4:	f2 ff 25 dd 2e 00 00 	bnd jmpq *0x2edd(%rip)        # 3fc8 <malloc@GLIBC_2.2.5>
    10eb:	0f 1f 44 00 00       	nopl   0x0(%rax,%rax,1)

00000000000010f0 <__printf_chk@plt>:
    10f0:	f3 0f 1e fa          	endbr64 
    10f4:	f2 ff 25 d5 2e 00 00 	bnd jmpq *0x2ed5(%rip)        # 3fd0 <__printf_chk@GLIBC_2.3.4>
    10fb:	0f 1f 44 00 00       	nopl   0x0(%rax,%rax,1)

Disassembly of section .text:

0000000000001100 <_start>:
    1100:	f3 0f 1e fa          	endbr64 
    1104:	31 ed                	xor    %ebp,%ebp
    1106:	49 89 d1             	mov    %rdx,%r9
    1109:	5e                   	pop    %rsi
    110a:	48 89 e2             	mov    %rsp,%rdx
    110d:	48 83 e4 f0          	and    $0xfffffffffffffff0,%rsp
    1111:	50                   	push   %rax
    1112:	54                   	push   %rsp
    1113:	4c 8d 05 36 02 00 00 	lea    0x236(%rip),%r8        # 1350 <__libc_csu_fini>
    111a:	48 8d 0d bf 01 00 00 	lea    0x1bf(%rip),%rcx        # 12e0 <__libc_csu_init>
    1121:	48 8d 3d 38 01 00 00 	lea    0x138(%rip),%rdi        # 1260 <main>
    1128:	ff 15 b2 2e 00 00    	callq  *0x2eb2(%rip)        # 3fe0 <__libc_start_main@GLIBC_2.2.5>
    112e:	f4                   	hlt    
    112f:	90                   	nop

0000000000001130 <deregister_tm_clones>:
    1130:	48 8d 3d d9 2e 00 00 	lea    0x2ed9(%rip),%rdi        # 4010 <__TMC_END__>
    1137:	48 8d 05 d2 2e 00 00 	lea    0x2ed2(%rip),%rax        # 4010 <__TMC_END__>
    113e:	48 39 f8             	cmp    %rdi,%rax
    1141:	74 15                	je     1158 <deregister_tm_clones+0x28>
    1143:	48 8b 05 8e 2e 00 00 	mov    0x2e8e(%rip),%rax        # 3fd8 <_ITM_deregisterTMCloneTable>
    114a:	48 85 c0             	test   %rax,%rax
    114d:	74 09                	je     1158 <deregister_tm_clones+0x28>
    114f:	ff e0                	jmpq   *%rax
    1151:	0f 1f 80 00 00 00 00 	nopl   0x0(%rax)
    1158:	c3                   	retq   
    1159:	0f 1f 80 00 00 00 00 	nopl   0x0(%rax)

0000000000001160 <register_tm_clones>:
    1160:	48 8d 3d a9 2e 00 00 	lea    0x2ea9(%rip),%rdi        # 4010 <__TMC_END__>
    1167:	48 8d 35 a2 2e 00 00 	lea    0x2ea2(%rip),%rsi        # 4010 <__TMC_END__>
    116e:	48 29 fe             	sub    %rdi,%rsi
    1171:	48 89 f0             	mov    %rsi,%rax
    1174:	48 c1 ee 3f          	shr    $0x3f,%rsi
    1178:	48 c1 f8 03          	sar    $0x3,%rax
    117c:	48 01 c6             	add    %rax,%rsi
    117f:	48 d1 fe             	sar    %rsi
    1182:	74 14                	je     1198 <register_tm_clones+0x38>
    1184:	48 8b 05 65 2e 00 00 	mov    0x2e65(%rip),%rax        # 3ff0 <_ITM_registerTMCloneTable>
    118b:	48 85 c0             	test   %rax,%rax
    118e:	74 08                	je     1198 <register_tm_clones+0x38>
    1190:	ff e0                	jmpq   *%rax
    1192:	66 0f 1f 44 00 00    	nopw   0x0(%rax,%rax,1)
    1198:	c3                   	retq   
    1199:	0f 1f 80 00 00 00 00 	nopl   0x0(%rax)

00000000000011a0 <__do_global_dtors_aux>:
    11a0:	f3 0f 1e fa          	endbr64 
    11a4:	80 3d 65 2e 00 00 00 	cmpb   $0x0,0x2e65(%rip)        # 4010 <__TMC_END__>
    11ab:	75 2b                	jne    11d8 <__do_global_dtors_aux+0x38>
    11ad:	55                   	push   %rbp
    11ae:	48 83 3d 42 2e 00 00 	cmpq   $0x0,0x2e42(%rip)        # 3ff8 <__cxa_finalize@GLIBC_2.2.5>
    11b5:	00 
    11b6:	48 89 e5             	mov    %rsp,%rbp
    11b9:	74 0c                	je     11c7 <__do_global_dtors_aux+0x27>
    11bb:	48 8b 3d 46 2e 00 00 	mov    0x2e46(%rip),%rdi        # 4008 <__dso_handle>
    11c2:	e8 c9 fe ff ff       	callq  1090 <__cxa_finalize@plt>
    11c7:	e8 64 ff ff ff       	callq  1130 <deregister_tm_clones>
    11cc:	c6 05 3d 2e 00 00 01 	movb   $0x1,0x2e3d(%rip)        # 4010 <__TMC_END__>
    11d3:	5d                   	pop    %rbp
    11d4:	c3                   	retq   
    11d5:	0f 1f 00             	nopl   (%rax)
    11d8:	c3                   	retq   
    11d9:	0f 1f 80 00 00 00 00 	nopl   0x0(%rax)

00000000000011e0 <frame_dummy>:
    11e0:	f3 0f 1e fa          	endbr64 
    11e4:	e9 77 ff ff ff       	jmpq   1160 <register_tm_clones>

00000000000011e9 <string_create>:
    11e9:	f3 0f 1e fa          	endbr64 
    11ed:	b8 00 00 00 00       	mov    $0x0,%eax
    11f2:	48 85 ff             	test   %rdi,%rdi
    11f5:	74 48                	je     123f <string_create+0x56>
    11f7:	55                   	push   %rbp
    11f8:	53                   	push   %rbx
    11f9:	48 83 ec 08          	sub    $0x8,%rsp
    11fd:	48 89 fb             	mov    %rdi,%rbx
    1200:	48 89 f5             	mov    %rsi,%rbp
    1203:	48 89 f7             	mov    %rsi,%rdi
    1206:	e8 b5 fe ff ff       	callq  10c0 <strlen@plt>
    120b:	89 43 08             	mov    %eax,0x8(%rbx)
    120e:	48 98                	cltq   
    1210:	48 8d 78 01          	lea    0x1(%rax),%rdi
    1214:	e8 c7 fe ff ff       	callq  10e0 <malloc@plt>
    1219:	48 89 c7             	mov    %rax,%rdi
    121c:	48 89 03             	mov    %rax,(%rbx)
    121f:	48 85 c0             	test   %rax,%rax
    1222:	74 14                	je     1238 <string_create+0x4f>
    1224:	48 89 ee             	mov    %rbp,%rsi
    1227:	e8 84 fe ff ff       	callq  10b0 <strcpy@plt>
    122c:	b8 01 00 00 00       	mov    $0x1,%eax
    1231:	48 83 c4 08          	add    $0x8,%rsp
    1235:	5b                   	pop    %rbx
    1236:	5d                   	pop    %rbp
    1237:	c3                   	retq   
    1238:	b8 00 00 00 00       	mov    $0x0,%eax
    123d:	eb f2                	jmp    1231 <string_create+0x48>
    123f:	c3                   	retq   

0000000000001240 <string_destroy>:
    1240:	f3 0f 1e fa          	endbr64 
    1244:	53                   	push   %rbx
    1245:	48 89 fb             	mov    %rdi,%rbx
    1248:	48 8b 3f             	mov    (%rdi),%rdi
    124b:	e8 50 fe ff ff       	callq  10a0 <free@plt>
    1250:	48 c7 03 00 00 00 00 	movq   $0x0,(%rbx)
    1257:	c7 43 08 00 00 00 00 	movl   $0x0,0x8(%rbx)
    125e:	5b                   	pop    %rbx
    125f:	c3                   	retq   

0000000000001260 <main>:
    1260:	f3 0f 1e fa          	endbr64 
    1264:	53                   	push   %rbx
    1265:	48 83 ec 20          	sub    $0x20,%rsp
    1269:	64 48 8b 04 25 28 00 	mov    %fs:0x28,%rax
    1270:	00 00 
    1272:	48 89 44 24 18       	mov    %rax,0x18(%rsp)
    1277:	31 c0                	xor    %eax,%eax
    1279:	48 89 e3             	mov    %rsp,%rbx
    127c:	48 8d 35 81 0d 00 00 	lea    0xd81(%rip),%rsi        # 2004 <_IO_stdin_used+0x4>
    1283:	48 89 df             	mov    %rbx,%rdi
    1286:	e8 5e ff ff ff       	callq  11e9 <string_create>
    128b:	8b 4c 24 08          	mov    0x8(%rsp),%ecx
    128f:	48 8b 14 24          	mov    (%rsp),%rdx
    1293:	48 8d 35 86 0d 00 00 	lea    0xd86(%rip),%rsi        # 2020 <_IO_stdin_used+0x20>
    129a:	bf 01 00 00 00       	mov    $0x1,%edi
    129f:	b8 00 00 00 00       	mov    $0x0,%eax
    12a4:	e8 47 fe ff ff       	callq  10f0 <__printf_chk@plt>
    12a9:	48 89 df             	mov    %rbx,%rdi
    12ac:	e8 8f ff ff ff       	callq  1240 <string_destroy>
    12b1:	48 8b 44 24 18       	mov    0x18(%rsp),%rax
    12b6:	64 48 2b 04 25 28 00 	sub    %fs:0x28,%rax
    12bd:	00 00 
    12bf:	75 0b                	jne    12cc <main+0x6c>
    12c1:	b8 00 00 00 00       	mov    $0x0,%eax
    12c6:	48 83 c4 20          	add    $0x20,%rsp
    12ca:	5b                   	pop    %rbx
    12cb:	c3                   	retq   
    12cc:	e8 ff fd ff ff       	callq  10d0 <__stack_chk_fail@plt>
    12d1:	66 2e 0f 1f 84 00 00 	nopw   %cs:0x0(%rax,%rax,1)
    12d8:	00 00 00 
    12db:	0f 1f 44 00 00       	nopl   0x0(%rax,%rax,1)

00000000000012e0 <__libc_csu_init>:
    12e0:	f3 0f 1e fa          	endbr64 
    12e4:	41 57                	push   %r15
    12e6:	4c 8d 3d a3 2a 00 00 	lea    0x2aa3(%rip),%r15        # 3d90 <__frame_dummy_init_array_entry>
    12ed:	41 56                	push   %r14
    12ef:	49 89 d6             	mov    %rdx,%r14
    12f2:	41 55                	push   %r13
    12f4:	49 89 f5             	mov    %rsi,%r13
    12f7:	41 54                	push   %r12
    12f9:	41 89 fc             	mov    %edi,%r12d
    12fc:	55                   	push   %rbp
    12fd:	48 8d 2d 94 2a 00 00 	lea    0x2a94(%rip),%rbp        # 3d98 <__do_global_dtors_aux_fini_array_entry>
    1304:	53                   	push   %rbx
    1305:	4c 29 fd             	sub    %r15,%rbp
    1308:	48 83 ec 08          	sub    $0x8,%rsp
    130c:	e8 ef fc ff ff       	callq  1000 <_init>
    1311:	48 c1 fd 03          	sar    $0x3,%rbp
    1315:	74 1f                	je     1336 <__libc_csu_init+0x56>
    1317:	31 db                	xor    %ebx,%ebx
    1319:	0f 1f 80 00 00 00 00 	nopl   0x0(%rax)
    1320:	4c 89 f2             	mov    %r14,%rdx
    1323:	4c 89 ee             	mov    %r13,%rsi
    1326:	44 89 e7             	mov    %r12d,%edi
    1329:	41 ff 14 df          	callq  *(%r15,%rbx,8)
    132d:	48 83 c3 01          	add    $0x1,%rbx
    1331:	48 39 dd             	cmp    %rbx,%rbp
    1334:	75 ea                	jne    1320 <__libc_csu_init+0x40>
    1336:	48 83 c4 08          	add    $0x8,%rsp
    133a:	5b                   	pop    %rbx
    133b:	5d                   	pop    %rbp
    133c:	41 5c                	pop    %r12
    133e:	41 5d                	pop    %r13
    1340:	41 5e                	pop    %r14
    1342:	41 5f                	pop    %r15
    1344:	c3                   	retq   
    1345:	66 66 2e 0f 1f 84 00 	data16 nopw %cs:0x0(%rax,%rax,1)
    134c:	00 00 00 00 

0000000000001350 <__libc_csu_fini>:
    1350:	f3 0f 1e fa          	endbr64 
    1354:	c3                   	retq   

Disassembly of section .fini:

0000000000001358 <_fini>:
    1358:	f3 0f 1e fa          	endbr64 
    135c:	48 83 ec 08          	sub    $0x8,%rsp
    1360:	48 83 c4 08          	add    $0x8,%rsp
    1364:	c3                   	retq   
