
/app/bin_gcc10_O1/udp_server:     file format elf64-x86-64


Disassembly of section .init:

0000000000001000 <_init>:
    1000:	f3 0f 1e fa          	endbr64 
    1004:	48 83 ec 08          	sub    $0x8,%rsp
    1008:	48 8b 05 d9 2f 00 00 	mov    0x2fd9(%rip),%rax        # 3fe8 <__gmon_start__>
    100f:	48 85 c0             	test   %rax,%rax
    1012:	74 02                	je     1016 <_init+0x16>
    1014:	ff d0                	callq  *%rax
    1016:	48 83 c4 08          	add    $0x8,%rsp
    101a:	c3                   	retq   

Disassembly of section .plt:

0000000000001020 <.plt>:
    1020:	ff 35 52 2f 00 00    	pushq  0x2f52(%rip)        # 3f78 <_GLOBAL_OFFSET_TABLE_+0x8>
    1026:	f2 ff 25 53 2f 00 00 	bnd jmpq *0x2f53(%rip)        # 3f80 <_GLOBAL_OFFSET_TABLE_+0x10>
    102d:	0f 1f 00             	nopl   (%rax)
    1030:	f3 0f 1e fa          	endbr64 
    1034:	68 00 00 00 00       	pushq  $0x0
    1039:	f2 e9 e1 ff ff ff    	bnd jmpq 1020 <.plt>
    103f:	90                   	nop
    1040:	f3 0f 1e fa          	endbr64 
    1044:	68 01 00 00 00       	pushq  $0x1
    1049:	f2 e9 d1 ff ff ff    	bnd jmpq 1020 <.plt>
    104f:	90                   	nop
    1050:	f3 0f 1e fa          	endbr64 
    1054:	68 02 00 00 00       	pushq  $0x2
    1059:	f2 e9 c1 ff ff ff    	bnd jmpq 1020 <.plt>
    105f:	90                   	nop
    1060:	f3 0f 1e fa          	endbr64 
    1064:	68 03 00 00 00       	pushq  $0x3
    1069:	f2 e9 b1 ff ff ff    	bnd jmpq 1020 <.plt>
    106f:	90                   	nop
    1070:	f3 0f 1e fa          	endbr64 
    1074:	68 04 00 00 00       	pushq  $0x4
    1079:	f2 e9 a1 ff ff ff    	bnd jmpq 1020 <.plt>
    107f:	90                   	nop
    1080:	f3 0f 1e fa          	endbr64 
    1084:	68 05 00 00 00       	pushq  $0x5
    1089:	f2 e9 91 ff ff ff    	bnd jmpq 1020 <.plt>
    108f:	90                   	nop
    1090:	f3 0f 1e fa          	endbr64 
    1094:	68 06 00 00 00       	pushq  $0x6
    1099:	f2 e9 81 ff ff ff    	bnd jmpq 1020 <.plt>
    109f:	90                   	nop
    10a0:	f3 0f 1e fa          	endbr64 
    10a4:	68 07 00 00 00       	pushq  $0x7
    10a9:	f2 e9 71 ff ff ff    	bnd jmpq 1020 <.plt>
    10af:	90                   	nop
    10b0:	f3 0f 1e fa          	endbr64 
    10b4:	68 08 00 00 00       	pushq  $0x8
    10b9:	f2 e9 61 ff ff ff    	bnd jmpq 1020 <.plt>
    10bf:	90                   	nop
    10c0:	f3 0f 1e fa          	endbr64 
    10c4:	68 09 00 00 00       	pushq  $0x9
    10c9:	f2 e9 51 ff ff ff    	bnd jmpq 1020 <.plt>
    10cf:	90                   	nop

Disassembly of section .plt.got:

00000000000010d0 <__cxa_finalize@plt>:
    10d0:	f3 0f 1e fa          	endbr64 
    10d4:	f2 ff 25 1d 2f 00 00 	bnd jmpq *0x2f1d(%rip)        # 3ff8 <__cxa_finalize@GLIBC_2.2.5>
    10db:	0f 1f 44 00 00       	nopl   0x0(%rax,%rax,1)

Disassembly of section .plt.sec:

00000000000010e0 <puts@plt>:
    10e0:	f3 0f 1e fa          	endbr64 
    10e4:	f2 ff 25 9d 2e 00 00 	bnd jmpq *0x2e9d(%rip)        # 3f88 <puts@GLIBC_2.2.5>
    10eb:	0f 1f 44 00 00       	nopl   0x0(%rax,%rax,1)

00000000000010f0 <__stack_chk_fail@plt>:
    10f0:	f3 0f 1e fa          	endbr64 
    10f4:	f2 ff 25 95 2e 00 00 	bnd jmpq *0x2e95(%rip)        # 3f90 <__stack_chk_fail@GLIBC_2.4>
    10fb:	0f 1f 44 00 00       	nopl   0x0(%rax,%rax,1)

0000000000001100 <sendto@plt>:
    1100:	f3 0f 1e fa          	endbr64 
    1104:	f2 ff 25 8d 2e 00 00 	bnd jmpq *0x2e8d(%rip)        # 3f98 <sendto@GLIBC_2.2.5>
    110b:	0f 1f 44 00 00       	nopl   0x0(%rax,%rax,1)

0000000000001110 <close@plt>:
    1110:	f3 0f 1e fa          	endbr64 
    1114:	f2 ff 25 85 2e 00 00 	bnd jmpq *0x2e85(%rip)        # 3fa0 <close@GLIBC_2.2.5>
    111b:	0f 1f 44 00 00       	nopl   0x0(%rax,%rax,1)

0000000000001120 <recvfrom@plt>:
    1120:	f3 0f 1e fa          	endbr64 
    1124:	f2 ff 25 7d 2e 00 00 	bnd jmpq *0x2e7d(%rip)        # 3fa8 <recvfrom@GLIBC_2.2.5>
    112b:	0f 1f 44 00 00       	nopl   0x0(%rax,%rax,1)

0000000000001130 <__printf_chk@plt>:
    1130:	f3 0f 1e fa          	endbr64 
    1134:	f2 ff 25 75 2e 00 00 	bnd jmpq *0x2e75(%rip)        # 3fb0 <__printf_chk@GLIBC_2.3.4>
    113b:	0f 1f 44 00 00       	nopl   0x0(%rax,%rax,1)

0000000000001140 <bind@plt>:
    1140:	f3 0f 1e fa          	endbr64 
    1144:	f2 ff 25 6d 2e 00 00 	bnd jmpq *0x2e6d(%rip)        # 3fb8 <bind@GLIBC_2.2.5>
    114b:	0f 1f 44 00 00       	nopl   0x0(%rax,%rax,1)

0000000000001150 <perror@plt>:
    1150:	f3 0f 1e fa          	endbr64 
    1154:	f2 ff 25 65 2e 00 00 	bnd jmpq *0x2e65(%rip)        # 3fc0 <perror@GLIBC_2.2.5>
    115b:	0f 1f 44 00 00       	nopl   0x0(%rax,%rax,1)

0000000000001160 <exit@plt>:
    1160:	f3 0f 1e fa          	endbr64 
    1164:	f2 ff 25 5d 2e 00 00 	bnd jmpq *0x2e5d(%rip)        # 3fc8 <exit@GLIBC_2.2.5>
    116b:	0f 1f 44 00 00       	nopl   0x0(%rax,%rax,1)

0000000000001170 <socket@plt>:
    1170:	f3 0f 1e fa          	endbr64 
    1174:	f2 ff 25 55 2e 00 00 	bnd jmpq *0x2e55(%rip)        # 3fd0 <socket@GLIBC_2.2.5>
    117b:	0f 1f 44 00 00       	nopl   0x0(%rax,%rax,1)

Disassembly of section .text:

0000000000001180 <_start>:
    1180:	f3 0f 1e fa          	endbr64 
    1184:	31 ed                	xor    %ebp,%ebp
    1186:	49 89 d1             	mov    %rdx,%r9
    1189:	5e                   	pop    %rsi
    118a:	48 89 e2             	mov    %rsp,%rdx
    118d:	48 83 e4 f0          	and    $0xfffffffffffffff0,%rsp
    1191:	50                   	push   %rax
    1192:	54                   	push   %rsp
    1193:	4c 8d 05 a6 02 00 00 	lea    0x2a6(%rip),%r8        # 1440 <__libc_csu_fini>
    119a:	48 8d 0d 2f 02 00 00 	lea    0x22f(%rip),%rcx        # 13d0 <__libc_csu_init>
    11a1:	48 8d 3d c1 00 00 00 	lea    0xc1(%rip),%rdi        # 1269 <main>
    11a8:	ff 15 32 2e 00 00    	callq  *0x2e32(%rip)        # 3fe0 <__libc_start_main@GLIBC_2.2.5>
    11ae:	f4                   	hlt    
    11af:	90                   	nop

00000000000011b0 <deregister_tm_clones>:
    11b0:	48 8d 3d 59 2e 00 00 	lea    0x2e59(%rip),%rdi        # 4010 <__TMC_END__>
    11b7:	48 8d 05 52 2e 00 00 	lea    0x2e52(%rip),%rax        # 4010 <__TMC_END__>
    11be:	48 39 f8             	cmp    %rdi,%rax
    11c1:	74 15                	je     11d8 <deregister_tm_clones+0x28>
    11c3:	48 8b 05 0e 2e 00 00 	mov    0x2e0e(%rip),%rax        # 3fd8 <_ITM_deregisterTMCloneTable>
    11ca:	48 85 c0             	test   %rax,%rax
    11cd:	74 09                	je     11d8 <deregister_tm_clones+0x28>
    11cf:	ff e0                	jmpq   *%rax
    11d1:	0f 1f 80 00 00 00 00 	nopl   0x0(%rax)
    11d8:	c3                   	retq   
    11d9:	0f 1f 80 00 00 00 00 	nopl   0x0(%rax)

00000000000011e0 <register_tm_clones>:
    11e0:	48 8d 3d 29 2e 00 00 	lea    0x2e29(%rip),%rdi        # 4010 <__TMC_END__>
    11e7:	48 8d 35 22 2e 00 00 	lea    0x2e22(%rip),%rsi        # 4010 <__TMC_END__>
    11ee:	48 29 fe             	sub    %rdi,%rsi
    11f1:	48 89 f0             	mov    %rsi,%rax
    11f4:	48 c1 ee 3f          	shr    $0x3f,%rsi
    11f8:	48 c1 f8 03          	sar    $0x3,%rax
    11fc:	48 01 c6             	add    %rax,%rsi
    11ff:	48 d1 fe             	sar    %rsi
    1202:	74 14                	je     1218 <register_tm_clones+0x38>
    1204:	48 8b 05 e5 2d 00 00 	mov    0x2de5(%rip),%rax        # 3ff0 <_ITM_registerTMCloneTable>
    120b:	48 85 c0             	test   %rax,%rax
    120e:	74 08                	je     1218 <register_tm_clones+0x38>
    1210:	ff e0                	jmpq   *%rax
    1212:	66 0f 1f 44 00 00    	nopw   0x0(%rax,%rax,1)
    1218:	c3                   	retq   
    1219:	0f 1f 80 00 00 00 00 	nopl   0x0(%rax)

0000000000001220 <__do_global_dtors_aux>:
    1220:	f3 0f 1e fa          	endbr64 
    1224:	80 3d e5 2d 00 00 00 	cmpb   $0x0,0x2de5(%rip)        # 4010 <__TMC_END__>
    122b:	75 2b                	jne    1258 <__do_global_dtors_aux+0x38>
    122d:	55                   	push   %rbp
    122e:	48 83 3d c2 2d 00 00 	cmpq   $0x0,0x2dc2(%rip)        # 3ff8 <__cxa_finalize@GLIBC_2.2.5>
    1235:	00 
    1236:	48 89 e5             	mov    %rsp,%rbp
    1239:	74 0c                	je     1247 <__do_global_dtors_aux+0x27>
    123b:	48 8b 3d c6 2d 00 00 	mov    0x2dc6(%rip),%rdi        # 4008 <__dso_handle>
    1242:	e8 89 fe ff ff       	callq  10d0 <__cxa_finalize@plt>
    1247:	e8 64 ff ff ff       	callq  11b0 <deregister_tm_clones>
    124c:	c6 05 bd 2d 00 00 01 	movb   $0x1,0x2dbd(%rip)        # 4010 <__TMC_END__>
    1253:	5d                   	pop    %rbp
    1254:	c3                   	retq   
    1255:	0f 1f 00             	nopl   (%rax)
    1258:	c3                   	retq   
    1259:	0f 1f 80 00 00 00 00 	nopl   0x0(%rax)

0000000000001260 <frame_dummy>:
    1260:	f3 0f 1e fa          	endbr64 
    1264:	e9 77 ff ff ff       	jmpq   11e0 <register_tm_clones>

0000000000001269 <main>:
    1269:	f3 0f 1e fa          	endbr64 
    126d:	41 54                	push   %r12
    126f:	55                   	push   %rbp
    1270:	53                   	push   %rbx
    1271:	48 81 ec 40 04 00 00 	sub    $0x440,%rsp
    1278:	64 48 8b 04 25 28 00 	mov    %fs:0x28,%rax
    127f:	00 00 
    1281:	48 89 84 24 38 04 00 	mov    %rax,0x438(%rsp)
    1288:	00 
    1289:	31 c0                	xor    %eax,%eax
    128b:	ba 00 00 00 00       	mov    $0x0,%edx
    1290:	be 02 00 00 00       	mov    $0x2,%esi
    1295:	bf 02 00 00 00       	mov    $0x2,%edi
    129a:	e8 d1 fe ff ff       	callq  1170 <socket@plt>
    129f:	85 c0                	test   %eax,%eax
    12a1:	0f 88 ea 00 00 00    	js     1391 <main+0x128>
    12a7:	89 c3                	mov    %eax,%ebx
    12a9:	48 8d 74 24 10       	lea    0x10(%rsp),%rsi
    12ae:	48 c7 44 24 10 00 00 	movq   $0x0,0x10(%rsp)
    12b5:	00 00 
    12b7:	48 c7 44 24 18 00 00 	movq   $0x0,0x18(%rsp)
    12be:	00 00 
    12c0:	48 c7 44 24 20 00 00 	movq   $0x0,0x20(%rsp)
    12c7:	00 00 
    12c9:	48 c7 44 24 28 00 00 	movq   $0x0,0x28(%rsp)
    12d0:	00 00 
    12d2:	66 c7 44 24 10 02 00 	movw   $0x2,0x10(%rsp)
    12d9:	66 c7 44 24 12 1f 90 	movw   $0x901f,0x12(%rsp)
    12e0:	ba 10 00 00 00       	mov    $0x10,%edx
    12e5:	89 c7                	mov    %eax,%edi
    12e7:	e8 54 fe ff ff       	callq  1140 <bind@plt>
    12ec:	85 c0                	test   %eax,%eax
    12ee:	0f 88 b3 00 00 00    	js     13a7 <main+0x13e>
    12f4:	48 8d 6c 24 20       	lea    0x20(%rsp),%rbp
    12f9:	4c 8d 64 24 30       	lea    0x30(%rsp),%r12
    12fe:	4c 8d 4c 24 0c       	lea    0xc(%rsp),%r9
    1303:	49 89 e8             	mov    %rbp,%r8
    1306:	b9 00 01 00 00       	mov    $0x100,%ecx
    130b:	ba 00 04 00 00       	mov    $0x400,%edx
    1310:	4c 89 e6             	mov    %r12,%rsi
    1313:	89 df                	mov    %ebx,%edi
    1315:	e8 06 fe ff ff       	callq  1120 <recvfrom@plt>
    131a:	48 98                	cltq   
    131c:	c6 44 04 30 00       	movb   $0x0,0x30(%rsp,%rax,1)
    1321:	4c 89 e2             	mov    %r12,%rdx
    1324:	48 8d 35 fc 0c 00 00 	lea    0xcfc(%rip),%rsi        # 2027 <_IO_stdin_used+0x27>
    132b:	bf 01 00 00 00       	mov    $0x1,%edi
    1330:	b8 00 00 00 00       	mov    $0x0,%eax
    1335:	e8 f6 fd ff ff       	callq  1130 <__printf_chk@plt>
    133a:	44 8b 4c 24 0c       	mov    0xc(%rsp),%r9d
    133f:	49 89 e8             	mov    %rbp,%r8
    1342:	b9 00 00 00 00       	mov    $0x0,%ecx
    1347:	ba 11 00 00 00       	mov    $0x11,%edx
    134c:	48 8d 35 e1 0c 00 00 	lea    0xce1(%rip),%rsi        # 2034 <_IO_stdin_used+0x34>
    1353:	89 df                	mov    %ebx,%edi
    1355:	e8 a6 fd ff ff       	callq  1100 <sendto@plt>
    135a:	48 8d 3d e5 0c 00 00 	lea    0xce5(%rip),%rdi        # 2046 <_IO_stdin_used+0x46>
    1361:	e8 7a fd ff ff       	callq  10e0 <puts@plt>
    1366:	89 df                	mov    %ebx,%edi
    1368:	e8 a3 fd ff ff       	callq  1110 <close@plt>
    136d:	48 8b 84 24 38 04 00 	mov    0x438(%rsp),%rax
    1374:	00 
    1375:	64 48 2b 04 25 28 00 	sub    %fs:0x28,%rax
    137c:	00 00 
    137e:	75 3d                	jne    13bd <main+0x154>
    1380:	b8 00 00 00 00       	mov    $0x0,%eax
    1385:	48 81 c4 40 04 00 00 	add    $0x440,%rsp
    138c:	5b                   	pop    %rbx
    138d:	5d                   	pop    %rbp
    138e:	41 5c                	pop    %r12
    1390:	c3                   	retq   
    1391:	48 8d 3d 6c 0c 00 00 	lea    0xc6c(%rip),%rdi        # 2004 <_IO_stdin_used+0x4>
    1398:	e8 b3 fd ff ff       	callq  1150 <perror@plt>
    139d:	bf 01 00 00 00       	mov    $0x1,%edi
    13a2:	e8 b9 fd ff ff       	callq  1160 <exit@plt>
    13a7:	48 8d 3d 6d 0c 00 00 	lea    0xc6d(%rip),%rdi        # 201b <_IO_stdin_used+0x1b>
    13ae:	e8 9d fd ff ff       	callq  1150 <perror@plt>
    13b3:	bf 01 00 00 00       	mov    $0x1,%edi
    13b8:	e8 a3 fd ff ff       	callq  1160 <exit@plt>
    13bd:	e8 2e fd ff ff       	callq  10f0 <__stack_chk_fail@plt>
    13c2:	66 2e 0f 1f 84 00 00 	nopw   %cs:0x0(%rax,%rax,1)
    13c9:	00 00 00 
    13cc:	0f 1f 40 00          	nopl   0x0(%rax)

00000000000013d0 <__libc_csu_init>:
    13d0:	f3 0f 1e fa          	endbr64 
    13d4:	41 57                	push   %r15
    13d6:	4c 8d 3d 93 29 00 00 	lea    0x2993(%rip),%r15        # 3d70 <__frame_dummy_init_array_entry>
    13dd:	41 56                	push   %r14
    13df:	49 89 d6             	mov    %rdx,%r14
    13e2:	41 55                	push   %r13
    13e4:	49 89 f5             	mov    %rsi,%r13
    13e7:	41 54                	push   %r12
    13e9:	41 89 fc             	mov    %edi,%r12d
    13ec:	55                   	push   %rbp
    13ed:	48 8d 2d 84 29 00 00 	lea    0x2984(%rip),%rbp        # 3d78 <__do_global_dtors_aux_fini_array_entry>
    13f4:	53                   	push   %rbx
    13f5:	4c 29 fd             	sub    %r15,%rbp
    13f8:	48 83 ec 08          	sub    $0x8,%rsp
    13fc:	e8 ff fb ff ff       	callq  1000 <_init>
    1401:	48 c1 fd 03          	sar    $0x3,%rbp
    1405:	74 1f                	je     1426 <__libc_csu_init+0x56>
    1407:	31 db                	xor    %ebx,%ebx
    1409:	0f 1f 80 00 00 00 00 	nopl   0x0(%rax)
    1410:	4c 89 f2             	mov    %r14,%rdx
    1413:	4c 89 ee             	mov    %r13,%rsi
    1416:	44 89 e7             	mov    %r12d,%edi
    1419:	41 ff 14 df          	callq  *(%r15,%rbx,8)
    141d:	48 83 c3 01          	add    $0x1,%rbx
    1421:	48 39 dd             	cmp    %rbx,%rbp
    1424:	75 ea                	jne    1410 <__libc_csu_init+0x40>
    1426:	48 83 c4 08          	add    $0x8,%rsp
    142a:	5b                   	pop    %rbx
    142b:	5d                   	pop    %rbp
    142c:	41 5c                	pop    %r12
    142e:	41 5d                	pop    %r13
    1430:	41 5e                	pop    %r14
    1432:	41 5f                	pop    %r15
    1434:	c3                   	retq   
    1435:	66 66 2e 0f 1f 84 00 	data16 nopw %cs:0x0(%rax,%rax,1)
    143c:	00 00 00 00 

0000000000001440 <__libc_csu_fini>:
    1440:	f3 0f 1e fa          	endbr64 
    1444:	c3                   	retq   

Disassembly of section .fini:

0000000000001448 <_fini>:
    1448:	f3 0f 1e fa          	endbr64 
    144c:	48 83 ec 08          	sub    $0x8,%rsp
    1450:	48 83 c4 08          	add    $0x8,%rsp
    1454:	c3                   	retq   
