
/app/bin_gccgcc8_O2/radix_sort:     file format elf64-x86-64


Disassembly of section .init:

0000000000001000 <_init>:
    1000:	f3 0f 1e fa          	endbr64 
    1004:	48 83 ec 08          	sub    $0x8,%rsp
    1008:	48 8b 05 d9 2f 00 00 	mov    0x2fd9(%rip),%rax        # 3fe8 <__gmon_start__>
    100f:	48 85 c0             	test   %rax,%rax
    1012:	74 02                	je     1016 <_init+0x16>
    1014:	ff d0                	callq  *%rax
    1016:	48 83 c4 08          	add    $0x8,%rsp
    101a:	c3                   	retq   

Disassembly of section .plt:

0000000000001020 <.plt>:
    1020:	ff 35 7a 2f 00 00    	pushq  0x2f7a(%rip)        # 3fa0 <_GLOBAL_OFFSET_TABLE_+0x8>
    1026:	f2 ff 25 7b 2f 00 00 	bnd jmpq *0x2f7b(%rip)        # 3fa8 <_GLOBAL_OFFSET_TABLE_+0x10>
    102d:	0f 1f 00             	nopl   (%rax)
    1030:	f3 0f 1e fa          	endbr64 
    1034:	68 00 00 00 00       	pushq  $0x0
    1039:	f2 e9 e1 ff ff ff    	bnd jmpq 1020 <.plt>
    103f:	90                   	nop
    1040:	f3 0f 1e fa          	endbr64 
    1044:	68 01 00 00 00       	pushq  $0x1
    1049:	f2 e9 d1 ff ff ff    	bnd jmpq 1020 <.plt>
    104f:	90                   	nop
    1050:	f3 0f 1e fa          	endbr64 
    1054:	68 02 00 00 00       	pushq  $0x2
    1059:	f2 e9 c1 ff ff ff    	bnd jmpq 1020 <.plt>
    105f:	90                   	nop
    1060:	f3 0f 1e fa          	endbr64 
    1064:	68 03 00 00 00       	pushq  $0x3
    1069:	f2 e9 b1 ff ff ff    	bnd jmpq 1020 <.plt>
    106f:	90                   	nop
    1070:	f3 0f 1e fa          	endbr64 
    1074:	68 04 00 00 00       	pushq  $0x4
    1079:	f2 e9 a1 ff ff ff    	bnd jmpq 1020 <.plt>
    107f:	90                   	nop

Disassembly of section .plt.got:

0000000000001080 <__cxa_finalize@plt>:
    1080:	f3 0f 1e fa          	endbr64 
    1084:	f2 ff 25 6d 2f 00 00 	bnd jmpq *0x2f6d(%rip)        # 3ff8 <__cxa_finalize@GLIBC_2.2.5>
    108b:	0f 1f 44 00 00       	nopl   0x0(%rax,%rax,1)

Disassembly of section .plt.sec:

0000000000001090 <putchar@plt>:
    1090:	f3 0f 1e fa          	endbr64 
    1094:	f2 ff 25 15 2f 00 00 	bnd jmpq *0x2f15(%rip)        # 3fb0 <putchar@GLIBC_2.2.5>
    109b:	0f 1f 44 00 00       	nopl   0x0(%rax,%rax,1)

00000000000010a0 <__stack_chk_fail@plt>:
    10a0:	f3 0f 1e fa          	endbr64 
    10a4:	f2 ff 25 0d 2f 00 00 	bnd jmpq *0x2f0d(%rip)        # 3fb8 <__stack_chk_fail@GLIBC_2.4>
    10ab:	0f 1f 44 00 00       	nopl   0x0(%rax,%rax,1)

00000000000010b0 <memcpy@plt>:
    10b0:	f3 0f 1e fa          	endbr64 
    10b4:	f2 ff 25 05 2f 00 00 	bnd jmpq *0x2f05(%rip)        # 3fc0 <memcpy@GLIBC_2.14>
    10bb:	0f 1f 44 00 00       	nopl   0x0(%rax,%rax,1)

00000000000010c0 <__printf_chk@plt>:
    10c0:	f3 0f 1e fa          	endbr64 
    10c4:	f2 ff 25 fd 2e 00 00 	bnd jmpq *0x2efd(%rip)        # 3fc8 <__printf_chk@GLIBC_2.3.4>
    10cb:	0f 1f 44 00 00       	nopl   0x0(%rax,%rax,1)

00000000000010d0 <__isoc99_scanf@plt>:
    10d0:	f3 0f 1e fa          	endbr64 
    10d4:	f2 ff 25 f5 2e 00 00 	bnd jmpq *0x2ef5(%rip)        # 3fd0 <__isoc99_scanf@GLIBC_2.7>
    10db:	0f 1f 44 00 00       	nopl   0x0(%rax,%rax,1)

Disassembly of section .text:

00000000000010e0 <main>:
    10e0:	f3 0f 1e fa          	endbr64 
    10e4:	41 55                	push   %r13
    10e6:	48 8d 35 6b 0f 00 00 	lea    0xf6b(%rip),%rsi        # 2058 <_IO_stdin_used+0x58>
    10ed:	bf 01 00 00 00       	mov    $0x1,%edi
    10f2:	4c 8d 2d 26 0f 00 00 	lea    0xf26(%rip),%r13        # 201f <_IO_stdin_used+0x1f>
    10f9:	41 54                	push   %r12
    10fb:	55                   	push   %rbp
    10fc:	53                   	push   %rbx
    10fd:	31 db                	xor    %ebx,%ebx
    10ff:	48 83 ec 48          	sub    $0x48,%rsp
    1103:	64 48 8b 04 25 28 00 	mov    %fs:0x28,%rax
    110a:	00 00 
    110c:	48 89 44 24 38       	mov    %rax,0x38(%rsp)
    1111:	31 c0                	xor    %eax,%eax
    1113:	4c 8d 64 24 10       	lea    0x10(%rsp),%r12
    1118:	4c 89 e5             	mov    %r12,%rbp
    111b:	e8 a0 ff ff ff       	callq  10c0 <__printf_chk@plt>
    1120:	48 8d 74 24 0c       	lea    0xc(%rsp),%rsi
    1125:	48 8d 3d f3 0e 00 00 	lea    0xef3(%rip),%rdi        # 201f <_IO_stdin_used+0x1f>
    112c:	31 c0                	xor    %eax,%eax
    112e:	e8 9d ff ff ff       	callq  10d0 <__isoc99_scanf@plt>
    1133:	48 8d 35 e8 0e 00 00 	lea    0xee8(%rip),%rsi        # 2022 <_IO_stdin_used+0x22>
    113a:	bf 01 00 00 00       	mov    $0x1,%edi
    113f:	31 c0                	xor    %eax,%eax
    1141:	e8 7a ff ff ff       	callq  10c0 <__printf_chk@plt>
    1146:	8b 74 24 0c          	mov    0xc(%rsp),%esi
    114a:	85 f6                	test   %esi,%esi
    114c:	7e 1e                	jle    116c <main+0x8c>
    114e:	66 90                	xchg   %ax,%ax
    1150:	48 89 ee             	mov    %rbp,%rsi
    1153:	4c 89 ef             	mov    %r13,%rdi
    1156:	31 c0                	xor    %eax,%eax
    1158:	83 c3 01             	add    $0x1,%ebx
    115b:	e8 70 ff ff ff       	callq  10d0 <__isoc99_scanf@plt>
    1160:	8b 74 24 0c          	mov    0xc(%rsp),%esi
    1164:	48 83 c5 04          	add    $0x4,%rbp
    1168:	39 de                	cmp    %ebx,%esi
    116a:	7f e4                	jg     1150 <main+0x70>
    116c:	4c 89 e7             	mov    %r12,%rdi
    116f:	e8 ac 01 00 00       	callq  1320 <RadixSort>
    1174:	48 8d 35 be 0e 00 00 	lea    0xebe(%rip),%rsi        # 2039 <_IO_stdin_used+0x39>
    117b:	bf 01 00 00 00       	mov    $0x1,%edi
    1180:	31 c0                	xor    %eax,%eax
    1182:	e8 39 ff ff ff       	callq  10c0 <__printf_chk@plt>
    1187:	8b 44 24 0c          	mov    0xc(%rsp),%eax
    118b:	85 c0                	test   %eax,%eax
    118d:	7e 2e                	jle    11bd <main+0xdd>
    118f:	31 db                	xor    %ebx,%ebx
    1191:	48 8d 2d 82 0e 00 00 	lea    0xe82(%rip),%rbp        # 201a <_IO_stdin_used+0x1a>
    1198:	0f 1f 84 00 00 00 00 	nopl   0x0(%rax,%rax,1)
    119f:	00 
    11a0:	41 8b 14 9c          	mov    (%r12,%rbx,4),%edx
    11a4:	48 89 ee             	mov    %rbp,%rsi
    11a7:	bf 01 00 00 00       	mov    $0x1,%edi
    11ac:	31 c0                	xor    %eax,%eax
    11ae:	48 83 c3 01          	add    $0x1,%rbx
    11b2:	e8 09 ff ff ff       	callq  10c0 <__printf_chk@plt>
    11b7:	39 5c 24 0c          	cmp    %ebx,0xc(%rsp)
    11bb:	7f e3                	jg     11a0 <main+0xc0>
    11bd:	bf 0a 00 00 00       	mov    $0xa,%edi
    11c2:	e8 c9 fe ff ff       	callq  1090 <putchar@plt>
    11c7:	48 8b 44 24 38       	mov    0x38(%rsp),%rax
    11cc:	64 48 2b 04 25 28 00 	sub    %fs:0x28,%rax
    11d3:	00 00 
    11d5:	75 0d                	jne    11e4 <main+0x104>
    11d7:	48 83 c4 48          	add    $0x48,%rsp
    11db:	31 c0                	xor    %eax,%eax
    11dd:	5b                   	pop    %rbx
    11de:	5d                   	pop    %rbp
    11df:	41 5c                	pop    %r12
    11e1:	41 5d                	pop    %r13
    11e3:	c3                   	retq   
    11e4:	e8 b7 fe ff ff       	callq  10a0 <__stack_chk_fail@plt>
    11e9:	0f 1f 80 00 00 00 00 	nopl   0x0(%rax)

00000000000011f0 <_start>:
    11f0:	f3 0f 1e fa          	endbr64 
    11f4:	31 ed                	xor    %ebp,%ebp
    11f6:	49 89 d1             	mov    %rdx,%r9
    11f9:	5e                   	pop    %rsi
    11fa:	48 89 e2             	mov    %rsp,%rdx
    11fd:	48 83 e4 f0          	and    $0xfffffffffffffff0,%rsp
    1201:	50                   	push   %rax
    1202:	54                   	push   %rsp
    1203:	4c 8d 05 c6 03 00 00 	lea    0x3c6(%rip),%r8        # 15d0 <__libc_csu_fini>
    120a:	48 8d 0d 4f 03 00 00 	lea    0x34f(%rip),%rcx        # 1560 <__libc_csu_init>
    1211:	48 8d 3d c8 fe ff ff 	lea    -0x138(%rip),%rdi        # 10e0 <main>
    1218:	ff 15 c2 2d 00 00    	callq  *0x2dc2(%rip)        # 3fe0 <__libc_start_main@GLIBC_2.2.5>
    121e:	f4                   	hlt    
    121f:	90                   	nop

0000000000001220 <deregister_tm_clones>:
    1220:	48 8d 3d e9 2d 00 00 	lea    0x2de9(%rip),%rdi        # 4010 <__TMC_END__>
    1227:	48 8d 05 e2 2d 00 00 	lea    0x2de2(%rip),%rax        # 4010 <__TMC_END__>
    122e:	48 39 f8             	cmp    %rdi,%rax
    1231:	74 15                	je     1248 <deregister_tm_clones+0x28>
    1233:	48 8b 05 9e 2d 00 00 	mov    0x2d9e(%rip),%rax        # 3fd8 <_ITM_deregisterTMCloneTable>
    123a:	48 85 c0             	test   %rax,%rax
    123d:	74 09                	je     1248 <deregister_tm_clones+0x28>
    123f:	ff e0                	jmpq   *%rax
    1241:	0f 1f 80 00 00 00 00 	nopl   0x0(%rax)
    1248:	c3                   	retq   
    1249:	0f 1f 80 00 00 00 00 	nopl   0x0(%rax)

0000000000001250 <register_tm_clones>:
    1250:	48 8d 3d b9 2d 00 00 	lea    0x2db9(%rip),%rdi        # 4010 <__TMC_END__>
    1257:	48 8d 35 b2 2d 00 00 	lea    0x2db2(%rip),%rsi        # 4010 <__TMC_END__>
    125e:	48 29 fe             	sub    %rdi,%rsi
    1261:	48 89 f0             	mov    %rsi,%rax
    1264:	48 c1 ee 3f          	shr    $0x3f,%rsi
    1268:	48 c1 f8 03          	sar    $0x3,%rax
    126c:	48 01 c6             	add    %rax,%rsi
    126f:	48 d1 fe             	sar    %rsi
    1272:	74 14                	je     1288 <register_tm_clones+0x38>
    1274:	48 8b 05 75 2d 00 00 	mov    0x2d75(%rip),%rax        # 3ff0 <_ITM_registerTMCloneTable>
    127b:	48 85 c0             	test   %rax,%rax
    127e:	74 08                	je     1288 <register_tm_clones+0x38>
    1280:	ff e0                	jmpq   *%rax
    1282:	66 0f 1f 44 00 00    	nopw   0x0(%rax,%rax,1)
    1288:	c3                   	retq   
    1289:	0f 1f 80 00 00 00 00 	nopl   0x0(%rax)

0000000000001290 <__do_global_dtors_aux>:
    1290:	f3 0f 1e fa          	endbr64 
    1294:	80 3d 75 2d 00 00 00 	cmpb   $0x0,0x2d75(%rip)        # 4010 <__TMC_END__>
    129b:	75 2b                	jne    12c8 <__do_global_dtors_aux+0x38>
    129d:	55                   	push   %rbp
    129e:	48 83 3d 52 2d 00 00 	cmpq   $0x0,0x2d52(%rip)        # 3ff8 <__cxa_finalize@GLIBC_2.2.5>
    12a5:	00 
    12a6:	48 89 e5             	mov    %rsp,%rbp
    12a9:	74 0c                	je     12b7 <__do_global_dtors_aux+0x27>
    12ab:	48 8b 3d 56 2d 00 00 	mov    0x2d56(%rip),%rdi        # 4008 <__dso_handle>
    12b2:	e8 c9 fd ff ff       	callq  1080 <__cxa_finalize@plt>
    12b7:	e8 64 ff ff ff       	callq  1220 <deregister_tm_clones>
    12bc:	c6 05 4d 2d 00 00 01 	movb   $0x1,0x2d4d(%rip)        # 4010 <__TMC_END__>
    12c3:	5d                   	pop    %rbp
    12c4:	c3                   	retq   
    12c5:	0f 1f 00             	nopl   (%rax)
    12c8:	c3                   	retq   
    12c9:	0f 1f 80 00 00 00 00 	nopl   0x0(%rax)

00000000000012d0 <frame_dummy>:
    12d0:	f3 0f 1e fa          	endbr64 
    12d4:	e9 77 ff ff ff       	jmpq   1250 <register_tm_clones>
    12d9:	0f 1f 80 00 00 00 00 	nopl   0x0(%rax)

00000000000012e0 <largest>:
    12e0:	f3 0f 1e fa          	endbr64 
    12e4:	44 8b 07             	mov    (%rdi),%r8d
    12e7:	83 fe 01             	cmp    $0x1,%esi
    12ea:	7e 26                	jle    1312 <largest+0x32>
    12ec:	8d 56 fe             	lea    -0x2(%rsi),%edx
    12ef:	48 8d 47 04          	lea    0x4(%rdi),%rax
    12f3:	48 8d 4c 97 08       	lea    0x8(%rdi,%rdx,4),%rcx
    12f8:	0f 1f 84 00 00 00 00 	nopl   0x0(%rax,%rax,1)
    12ff:	00 
    1300:	8b 10                	mov    (%rax),%edx
    1302:	41 39 d0             	cmp    %edx,%r8d
    1305:	44 0f 4c c2          	cmovl  %edx,%r8d
    1309:	48 83 c0 04          	add    $0x4,%rax
    130d:	48 39 c8             	cmp    %rcx,%rax
    1310:	75 ee                	jne    1300 <largest+0x20>
    1312:	44 89 c0             	mov    %r8d,%eax
    1315:	c3                   	retq   
    1316:	66 2e 0f 1f 84 00 00 	nopw   %cs:0x0(%rax,%rax,1)
    131d:	00 00 00 

0000000000001320 <RadixSort>:
    1320:	f3 0f 1e fa          	endbr64 
    1324:	41 57                	push   %r15
    1326:	41 56                	push   %r14
    1328:	41 55                	push   %r13
    132a:	41 54                	push   %r12
    132c:	55                   	push   %rbp
    132d:	53                   	push   %rbx
    132e:	48 81 ec 18 02 00 00 	sub    $0x218,%rsp
    1335:	8b 1f                	mov    (%rdi),%ebx
    1337:	48 89 7c 24 10       	mov    %rdi,0x10(%rsp)
    133c:	89 74 24 1c          	mov    %esi,0x1c(%rsp)
    1340:	64 48 8b 04 25 28 00 	mov    %fs:0x28,%rax
    1347:	00 00 
    1349:	48 89 84 24 08 02 00 	mov    %rax,0x208(%rsp)
    1350:	00 
    1351:	31 c0                	xor    %eax,%eax
    1353:	83 fe 01             	cmp    $0x1,%esi
    1356:	7e 20                	jle    1378 <RadixSort+0x58>
    1358:	8d 56 fe             	lea    -0x2(%rsi),%edx
    135b:	48 8d 47 04          	lea    0x4(%rdi),%rax
    135f:	48 8d 4c 97 08       	lea    0x8(%rdi,%rdx,4),%rcx
    1364:	0f 1f 40 00          	nopl   0x0(%rax)
    1368:	8b 10                	mov    (%rax),%edx
    136a:	39 d3                	cmp    %edx,%ebx
    136c:	0f 4c da             	cmovl  %edx,%ebx
    136f:	48 83 c0 04          	add    $0x4,%rax
    1373:	48 39 c8             	cmp    %rcx,%rax
    1376:	75 f0                	jne    1368 <RadixSort+0x48>
    1378:	31 c0                	xor    %eax,%eax
    137a:	89 da                	mov    %ebx,%edx
    137c:	48 8d 35 81 0c 00 00 	lea    0xc81(%rip),%rsi        # 2004 <_IO_stdin_used+0x4>
    1383:	bf 01 00 00 00       	mov    $0x1,%edi
    1388:	e8 33 fd ff ff       	callq  10c0 <__printf_chk@plt>
    138d:	85 db                	test   %ebx,%ebx
    138f:	0f 8e 96 01 00 00    	jle    152b <RadixSort+0x20b>
    1395:	31 d2                	xor    %edx,%edx
    1397:	b9 cd cc cc cc       	mov    $0xcccccccd,%ecx
    139c:	0f 1f 40 00          	nopl   0x0(%rax)
    13a0:	89 db                	mov    %ebx,%ebx
    13a2:	89 d6                	mov    %edx,%esi
    13a4:	8d 52 01             	lea    0x1(%rdx),%edx
    13a7:	48 89 d8             	mov    %rbx,%rax
    13aa:	48 0f af d9          	imul   %rcx,%rbx
    13ae:	48 c1 eb 23          	shr    $0x23,%rbx
    13b2:	83 f8 09             	cmp    $0x9,%eax
    13b5:	7f e9                	jg     13a0 <RadixSort+0x80>
    13b7:	8b 44 24 1c          	mov    0x1c(%rsp),%eax
    13bb:	48 8b 5c 24 10       	mov    0x10(%rsp),%rbx
    13c0:	89 74 24 34          	mov    %esi,0x34(%rsp)
    13c4:	4c 8d 35 4f 0c 00 00 	lea    0xc4f(%rip),%r14        # 201a <_IO_stdin_used+0x1a>
    13cb:	c7 44 24 30 00 00 00 	movl   $0x0,0x30(%rsp)
    13d2:	00 
    13d3:	83 e8 01             	sub    $0x1,%eax
    13d6:	c7 44 24 18 01 00 00 	movl   $0x1,0x18(%rsp)
    13dd:	00 
    13de:	48 8d 6c 83 04       	lea    0x4(%rbx,%rax,4),%rbp
    13e3:	48 8d 44 24 40       	lea    0x40(%rsp),%rax
    13e8:	48 89 44 24 20       	mov    %rax,0x20(%rsp)
    13ed:	48 8d 44 24 70       	lea    0x70(%rsp),%rax
    13f2:	48 89 44 24 38       	mov    %rax,0x38(%rsp)
    13f7:	48 8d 84 24 00 02 00 	lea    0x200(%rsp),%rax
    13fe:	00 
    13ff:	48 89 44 24 08       	mov    %rax,0x8(%rsp)
    1404:	0f 1f 40 00          	nopl   0x0(%rax)
    1408:	48 8b 44 24 20       	mov    0x20(%rsp),%rax
    140d:	8b 54 24 1c          	mov    0x1c(%rsp),%edx
    1411:	66 0f ef c0          	pxor   %xmm0,%xmm0
    1415:	48 c7 40 20 00 00 00 	movq   $0x0,0x20(%rax)
    141c:	00 
    141d:	0f 11 00             	movups %xmm0,(%rax)
    1420:	0f 11 40 10          	movups %xmm0,0x10(%rax)
    1424:	85 d2                	test   %edx,%edx
    1426:	7e 5b                	jle    1483 <RadixSort+0x163>
    1428:	48 8b 4c 24 10       	mov    0x10(%rsp),%rcx
    142d:	44 8b 44 24 18       	mov    0x18(%rsp),%r8d
    1432:	66 0f 1f 44 00 00    	nopw   0x0(%rax,%rax,1)
    1438:	8b 31                	mov    (%rcx),%esi
    143a:	48 83 c1 04          	add    $0x4,%rcx
    143e:	89 f0                	mov    %esi,%eax
    1440:	99                   	cltd   
    1441:	41 f7 f8             	idiv   %r8d
    1444:	48 63 d0             	movslq %eax,%rdx
    1447:	89 c7                	mov    %eax,%edi
    1449:	48 69 d2 67 66 66 66 	imul   $0x66666667,%rdx,%rdx
    1450:	c1 ff 1f             	sar    $0x1f,%edi
    1453:	48 c1 fa 22          	sar    $0x22,%rdx
    1457:	29 fa                	sub    %edi,%edx
    1459:	8d 3c 92             	lea    (%rdx,%rdx,4),%edi
    145c:	01 ff                	add    %edi,%edi
    145e:	29 f8                	sub    %edi,%eax
    1460:	48 63 d0             	movslq %eax,%rdx
    1463:	48 63 7c 94 40       	movslq 0x40(%rsp,%rdx,4),%rdi
    1468:	4c 8d 0c 92          	lea    (%rdx,%rdx,4),%r9
    146c:	48 89 f8             	mov    %rdi,%rax
    146f:	4a 8d 3c 4f          	lea    (%rdi,%r9,2),%rdi
    1473:	83 c0 01             	add    $0x1,%eax
    1476:	89 74 bc 70          	mov    %esi,0x70(%rsp,%rdi,4)
    147a:	89 44 94 40          	mov    %eax,0x40(%rsp,%rdx,4)
    147e:	48 39 cd             	cmp    %rcx,%rbp
    1481:	75 b5                	jne    1438 <RadixSort+0x118>
    1483:	45 31 ff             	xor    %r15d,%r15d
    1486:	48 89 6c 24 28       	mov    %rbp,0x28(%rsp)
    148b:	48 8b 5c 24 20       	mov    0x20(%rsp),%rbx
    1490:	44 89 fd             	mov    %r15d,%ebp
    1493:	4c 8b 6c 24 38       	mov    0x38(%rsp),%r13
    1498:	4c 8b 7c 24 10       	mov    0x10(%rsp),%r15
    149d:	0f 1f 00             	nopl   (%rax)
    14a0:	44 8b 23             	mov    (%rbx),%r12d
    14a3:	45 85 e4             	test   %r12d,%r12d
    14a6:	7e 19                	jle    14c1 <RadixSort+0x1a1>
    14a8:	48 63 c5             	movslq %ebp,%rax
    14ab:	49 63 d4             	movslq %r12d,%rdx
    14ae:	4c 89 ee             	mov    %r13,%rsi
    14b1:	44 01 e5             	add    %r12d,%ebp
    14b4:	49 8d 3c 87          	lea    (%r15,%rax,4),%rdi
    14b8:	48 c1 e2 02          	shl    $0x2,%rdx
    14bc:	e8 ef fb ff ff       	callq  10b0 <memcpy@plt>
    14c1:	48 83 c3 04          	add    $0x4,%rbx
    14c5:	49 83 c5 28          	add    $0x28,%r13
    14c9:	4c 39 6c 24 08       	cmp    %r13,0x8(%rsp)
    14ce:	75 d0                	jne    14a0 <RadixSort+0x180>
    14d0:	8b 44 24 18          	mov    0x18(%rsp),%eax
    14d4:	48 8b 6c 24 28       	mov    0x28(%rsp),%rbp
    14d9:	8d 1c 80             	lea    (%rax,%rax,4),%ebx
    14dc:	8d 04 1b             	lea    (%rbx,%rbx,1),%eax
    14df:	89 44 24 18          	mov    %eax,0x18(%rsp)
    14e3:	8b 44 24 1c          	mov    0x1c(%rsp),%eax
    14e7:	85 c0                	test   %eax,%eax
    14e9:	7e 20                	jle    150b <RadixSort+0x1eb>
    14eb:	4c 8b 7c 24 10       	mov    0x10(%rsp),%r15
    14f0:	41 8b 17             	mov    (%r15),%edx
    14f3:	4c 89 f6             	mov    %r14,%rsi
    14f6:	bf 01 00 00 00       	mov    $0x1,%edi
    14fb:	31 c0                	xor    %eax,%eax
    14fd:	49 83 c7 04          	add    $0x4,%r15
    1501:	e8 ba fb ff ff       	callq  10c0 <__printf_chk@plt>
    1506:	49 39 ef             	cmp    %rbp,%r15
    1509:	75 e5                	jne    14f0 <RadixSort+0x1d0>
    150b:	bf 0a 00 00 00       	mov    $0xa,%edi
    1510:	e8 7b fb ff ff       	callq  1090 <putchar@plt>
    1515:	8b 4c 24 30          	mov    0x30(%rsp),%ecx
    1519:	8d 41 01             	lea    0x1(%rcx),%eax
    151c:	39 4c 24 34          	cmp    %ecx,0x34(%rsp)
    1520:	74 09                	je     152b <RadixSort+0x20b>
    1522:	89 44 24 30          	mov    %eax,0x30(%rsp)
    1526:	e9 dd fe ff ff       	jmpq   1408 <RadixSort+0xe8>
    152b:	48 8b 84 24 08 02 00 	mov    0x208(%rsp),%rax
    1532:	00 
    1533:	64 48 2b 04 25 28 00 	sub    %fs:0x28,%rax
    153a:	00 00 
    153c:	75 12                	jne    1550 <RadixSort+0x230>
    153e:	48 81 c4 18 02 00 00 	add    $0x218,%rsp
    1545:	5b                   	pop    %rbx
    1546:	5d                   	pop    %rbp
    1547:	41 5c                	pop    %r12
    1549:	41 5d                	pop    %r13
    154b:	41 5e                	pop    %r14
    154d:	41 5f                	pop    %r15
    154f:	c3                   	retq   
    1550:	e8 4b fb ff ff       	callq  10a0 <__stack_chk_fail@plt>
    1555:	66 2e 0f 1f 84 00 00 	nopw   %cs:0x0(%rax,%rax,1)
    155c:	00 00 00 
    155f:	90                   	nop

0000000000001560 <__libc_csu_init>:
    1560:	f3 0f 1e fa          	endbr64 
    1564:	41 57                	push   %r15
    1566:	4c 8d 3d 2b 28 00 00 	lea    0x282b(%rip),%r15        # 3d98 <__frame_dummy_init_array_entry>
    156d:	41 56                	push   %r14
    156f:	49 89 d6             	mov    %rdx,%r14
    1572:	41 55                	push   %r13
    1574:	49 89 f5             	mov    %rsi,%r13
    1577:	41 54                	push   %r12
    1579:	41 89 fc             	mov    %edi,%r12d
    157c:	55                   	push   %rbp
    157d:	48 8d 2d 1c 28 00 00 	lea    0x281c(%rip),%rbp        # 3da0 <__do_global_dtors_aux_fini_array_entry>
    1584:	53                   	push   %rbx
    1585:	4c 29 fd             	sub    %r15,%rbp
    1588:	48 83 ec 08          	sub    $0x8,%rsp
    158c:	e8 6f fa ff ff       	callq  1000 <_init>
    1591:	48 c1 fd 03          	sar    $0x3,%rbp
    1595:	74 1f                	je     15b6 <__libc_csu_init+0x56>
    1597:	31 db                	xor    %ebx,%ebx
    1599:	0f 1f 80 00 00 00 00 	nopl   0x0(%rax)
    15a0:	4c 89 f2             	mov    %r14,%rdx
    15a3:	4c 89 ee             	mov    %r13,%rsi
    15a6:	44 89 e7             	mov    %r12d,%edi
    15a9:	41 ff 14 df          	callq  *(%r15,%rbx,8)
    15ad:	48 83 c3 01          	add    $0x1,%rbx
    15b1:	48 39 dd             	cmp    %rbx,%rbp
    15b4:	75 ea                	jne    15a0 <__libc_csu_init+0x40>
    15b6:	48 83 c4 08          	add    $0x8,%rsp
    15ba:	5b                   	pop    %rbx
    15bb:	5d                   	pop    %rbp
    15bc:	41 5c                	pop    %r12
    15be:	41 5d                	pop    %r13
    15c0:	41 5e                	pop    %r14
    15c2:	41 5f                	pop    %r15
    15c4:	c3                   	retq   
    15c5:	66 66 2e 0f 1f 84 00 	data16 nopw %cs:0x0(%rax,%rax,1)
    15cc:	00 00 00 00 

00000000000015d0 <__libc_csu_fini>:
    15d0:	f3 0f 1e fa          	endbr64 
    15d4:	c3                   	retq   

Disassembly of section .fini:

00000000000015d8 <_fini>:
    15d8:	f3 0f 1e fa          	endbr64 
    15dc:	48 83 ec 08          	sub    $0x8,%rsp
    15e0:	48 83 c4 08          	add    $0x8,%rsp
    15e4:	c3                   	retq   
