
/app/bin_gccgcc10_O2/2020_03_28-Lesson-b:     file format elf64-x86-64


Disassembly of section .init:

0000000000001000 <_init>:
    1000:	f3 0f 1e fa          	endbr64 
    1004:	48 83 ec 08          	sub    $0x8,%rsp
    1008:	48 8b 05 d9 2f 00 00 	mov    0x2fd9(%rip),%rax        # 3fe8 <__gmon_start__>
    100f:	48 85 c0             	test   %rax,%rax
    1012:	74 02                	je     1016 <_init+0x16>
    1014:	ff d0                	callq  *%rax
    1016:	48 83 c4 08          	add    $0x8,%rsp
    101a:	c3                   	retq   

Disassembly of section .plt:

0000000000001020 <.plt>:
    1020:	ff 35 6a 2f 00 00    	pushq  0x2f6a(%rip)        # 3f90 <_GLOBAL_OFFSET_TABLE_+0x8>
    1026:	f2 ff 25 6b 2f 00 00 	bnd jmpq *0x2f6b(%rip)        # 3f98 <_GLOBAL_OFFSET_TABLE_+0x10>
    102d:	0f 1f 00             	nopl   (%rax)
    1030:	f3 0f 1e fa          	endbr64 
    1034:	68 00 00 00 00       	pushq  $0x0
    1039:	f2 e9 e1 ff ff ff    	bnd jmpq 1020 <.plt>
    103f:	90                   	nop
    1040:	f3 0f 1e fa          	endbr64 
    1044:	68 01 00 00 00       	pushq  $0x1
    1049:	f2 e9 d1 ff ff ff    	bnd jmpq 1020 <.plt>
    104f:	90                   	nop
    1050:	f3 0f 1e fa          	endbr64 
    1054:	68 02 00 00 00       	pushq  $0x2
    1059:	f2 e9 c1 ff ff ff    	bnd jmpq 1020 <.plt>
    105f:	90                   	nop
    1060:	f3 0f 1e fa          	endbr64 
    1064:	68 03 00 00 00       	pushq  $0x3
    1069:	f2 e9 b1 ff ff ff    	bnd jmpq 1020 <.plt>
    106f:	90                   	nop
    1070:	f3 0f 1e fa          	endbr64 
    1074:	68 04 00 00 00       	pushq  $0x4
    1079:	f2 e9 a1 ff ff ff    	bnd jmpq 1020 <.plt>
    107f:	90                   	nop
    1080:	f3 0f 1e fa          	endbr64 
    1084:	68 05 00 00 00       	pushq  $0x5
    1089:	f2 e9 91 ff ff ff    	bnd jmpq 1020 <.plt>
    108f:	90                   	nop
    1090:	f3 0f 1e fa          	endbr64 
    1094:	68 06 00 00 00       	pushq  $0x6
    1099:	f2 e9 81 ff ff ff    	bnd jmpq 1020 <.plt>
    109f:	90                   	nop

Disassembly of section .plt.got:

00000000000010a0 <__cxa_finalize@plt>:
    10a0:	f3 0f 1e fa          	endbr64 
    10a4:	f2 ff 25 4d 2f 00 00 	bnd jmpq *0x2f4d(%rip)        # 3ff8 <__cxa_finalize@GLIBC_2.2.5>
    10ab:	0f 1f 44 00 00       	nopl   0x0(%rax,%rax,1)

Disassembly of section .plt.sec:

00000000000010b0 <__stack_chk_fail@plt>:
    10b0:	f3 0f 1e fa          	endbr64 
    10b4:	f2 ff 25 e5 2e 00 00 	bnd jmpq *0x2ee5(%rip)        # 3fa0 <__stack_chk_fail@GLIBC_2.4>
    10bb:	0f 1f 44 00 00       	nopl   0x0(%rax,%rax,1)

00000000000010c0 <close@plt>:
    10c0:	f3 0f 1e fa          	endbr64 
    10c4:	f2 ff 25 dd 2e 00 00 	bnd jmpq *0x2edd(%rip)        # 3fa8 <close@GLIBC_2.2.5>
    10cb:	0f 1f 44 00 00       	nopl   0x0(%rax,%rax,1)

00000000000010d0 <read@plt>:
    10d0:	f3 0f 1e fa          	endbr64 
    10d4:	f2 ff 25 d5 2e 00 00 	bnd jmpq *0x2ed5(%rip)        # 3fb0 <read@GLIBC_2.2.5>
    10db:	0f 1f 44 00 00       	nopl   0x0(%rax,%rax,1)

00000000000010e0 <putc@plt>:
    10e0:	f3 0f 1e fa          	endbr64 
    10e4:	f2 ff 25 cd 2e 00 00 	bnd jmpq *0x2ecd(%rip)        # 3fb8 <putc@GLIBC_2.2.5>
    10eb:	0f 1f 44 00 00       	nopl   0x0(%rax,%rax,1)

00000000000010f0 <open@plt>:
    10f0:	f3 0f 1e fa          	endbr64 
    10f4:	f2 ff 25 c5 2e 00 00 	bnd jmpq *0x2ec5(%rip)        # 3fc0 <open@GLIBC_2.2.5>
    10fb:	0f 1f 44 00 00       	nopl   0x0(%rax,%rax,1)

0000000000001100 <fwrite@plt>:
    1100:	f3 0f 1e fa          	endbr64 
    1104:	f2 ff 25 bd 2e 00 00 	bnd jmpq *0x2ebd(%rip)        # 3fc8 <fwrite@GLIBC_2.2.5>
    110b:	0f 1f 44 00 00       	nopl   0x0(%rax,%rax,1)

0000000000001110 <__fprintf_chk@plt>:
    1110:	f3 0f 1e fa          	endbr64 
    1114:	f2 ff 25 b5 2e 00 00 	bnd jmpq *0x2eb5(%rip)        # 3fd0 <__fprintf_chk@GLIBC_2.3.4>
    111b:	0f 1f 44 00 00       	nopl   0x0(%rax,%rax,1)

Disassembly of section .text:

0000000000001120 <main>:
    1120:	f3 0f 1e fa          	endbr64 
    1124:	41 54                	push   %r12
    1126:	31 f6                	xor    %esi,%esi
    1128:	55                   	push   %rbp
    1129:	53                   	push   %rbx
    112a:	48 83 ec 20          	sub    $0x20,%rsp
    112e:	64 48 8b 04 25 28 00 	mov    %fs:0x28,%rax
    1135:	00 00 
    1137:	48 89 44 24 18       	mov    %rax,0x18(%rsp)
    113c:	48 b8 67 65 74 74 79 	movabs $0x7562737974746567,%rax
    1143:	73 62 75 
    1146:	4c 8d 64 24 09       	lea    0x9(%rsp),%r12
    114b:	c7 44 24 11 72 67 2e 	movl   $0x742e6772,0x11(%rsp)
    1152:	74 
    1153:	48 8d 5c 24 08       	lea    0x8(%rsp),%rbx
    1158:	4c 89 e7             	mov    %r12,%rdi
    115b:	c6 44 24 17 00       	movb   $0x0,0x17(%rsp)
    1160:	48 89 44 24 09       	mov    %rax,0x9(%rsp)
    1165:	b8 78 74 00 00       	mov    $0x7478,%eax
    116a:	66 89 44 24 15       	mov    %ax,0x15(%rsp)
    116f:	31 c0                	xor    %eax,%eax
    1171:	e8 7a ff ff ff       	callq  10f0 <open@plt>
    1176:	89 c5                	mov    %eax,%ebp
    1178:	83 f8 ff             	cmp    $0xffffffff,%eax
    117b:	75 1a                	jne    1197 <main+0x77>
    117d:	eb 6d                	jmp    11ec <main+0xcc>
    117f:	90                   	nop
    1180:	48 83 f8 ff          	cmp    $0xffffffffffffffff,%rax
    1184:	74 47                	je     11cd <main+0xad>
    1186:	0f be 7c 24 08       	movsbl 0x8(%rsp),%edi
    118b:	48 8b 35 8e 2e 00 00 	mov    0x2e8e(%rip),%rsi        # 4020 <stdout@@GLIBC_2.2.5>
    1192:	e8 49 ff ff ff       	callq  10e0 <putc@plt>
    1197:	ba 01 00 00 00       	mov    $0x1,%edx
    119c:	48 89 de             	mov    %rbx,%rsi
    119f:	89 ef                	mov    %ebp,%edi
    11a1:	e8 2a ff ff ff       	callq  10d0 <read@plt>
    11a6:	48 85 c0             	test   %rax,%rax
    11a9:	75 d5                	jne    1180 <main+0x60>
    11ab:	89 ef                	mov    %ebp,%edi
    11ad:	e8 0e ff ff ff       	callq  10c0 <close@plt>
    11b2:	31 c0                	xor    %eax,%eax
    11b4:	48 8b 4c 24 18       	mov    0x18(%rsp),%rcx
    11b9:	64 48 2b 0c 25 28 00 	sub    %fs:0x28,%rcx
    11c0:	00 00 
    11c2:	75 4c                	jne    1210 <main+0xf0>
    11c4:	48 83 c4 20          	add    $0x20,%rsp
    11c8:	5b                   	pop    %rbx
    11c9:	5d                   	pop    %rbp
    11ca:	41 5c                	pop    %r12
    11cc:	c3                   	retq   
    11cd:	48 8b 0d 6c 2e 00 00 	mov    0x2e6c(%rip),%rcx        # 4040 <stderr@@GLIBC_2.2.5>
    11d4:	ba 10 00 00 00       	mov    $0x10,%edx
    11d9:	be 01 00 00 00       	mov    $0x1,%esi
    11de:	48 8d 3d 32 0e 00 00 	lea    0xe32(%rip),%rdi        # 2017 <_IO_stdin_used+0x17>
    11e5:	e8 16 ff ff ff       	callq  1100 <fwrite@plt>
    11ea:	eb bf                	jmp    11ab <main+0x8b>
    11ec:	48 8b 3d 4d 2e 00 00 	mov    0x2e4d(%rip),%rdi        # 4040 <stderr@@GLIBC_2.2.5>
    11f3:	4c 89 e1             	mov    %r12,%rcx
    11f6:	be 01 00 00 00       	mov    $0x1,%esi
    11fb:	31 c0                	xor    %eax,%eax
    11fd:	48 8d 15 00 0e 00 00 	lea    0xe00(%rip),%rdx        # 2004 <_IO_stdin_used+0x4>
    1204:	e8 07 ff ff ff       	callq  1110 <__fprintf_chk@plt>
    1209:	b8 01 00 00 00       	mov    $0x1,%eax
    120e:	eb a4                	jmp    11b4 <main+0x94>
    1210:	e8 9b fe ff ff       	callq  10b0 <__stack_chk_fail@plt>
    1215:	66 2e 0f 1f 84 00 00 	nopw   %cs:0x0(%rax,%rax,1)
    121c:	00 00 00 
    121f:	90                   	nop

0000000000001220 <_start>:
    1220:	f3 0f 1e fa          	endbr64 
    1224:	31 ed                	xor    %ebp,%ebp
    1226:	49 89 d1             	mov    %rdx,%r9
    1229:	5e                   	pop    %rsi
    122a:	48 89 e2             	mov    %rsp,%rdx
    122d:	48 83 e4 f0          	and    $0xfffffffffffffff0,%rsp
    1231:	50                   	push   %rax
    1232:	54                   	push   %rsp
    1233:	4c 8d 05 46 01 00 00 	lea    0x146(%rip),%r8        # 1380 <__libc_csu_fini>
    123a:	48 8d 0d cf 00 00 00 	lea    0xcf(%rip),%rcx        # 1310 <__libc_csu_init>
    1241:	48 8d 3d d8 fe ff ff 	lea    -0x128(%rip),%rdi        # 1120 <main>
    1248:	ff 15 92 2d 00 00    	callq  *0x2d92(%rip)        # 3fe0 <__libc_start_main@GLIBC_2.2.5>
    124e:	f4                   	hlt    
    124f:	90                   	nop

0000000000001250 <deregister_tm_clones>:
    1250:	48 8d 3d b9 2d 00 00 	lea    0x2db9(%rip),%rdi        # 4010 <__TMC_END__>
    1257:	48 8d 05 b2 2d 00 00 	lea    0x2db2(%rip),%rax        # 4010 <__TMC_END__>
    125e:	48 39 f8             	cmp    %rdi,%rax
    1261:	74 15                	je     1278 <deregister_tm_clones+0x28>
    1263:	48 8b 05 6e 2d 00 00 	mov    0x2d6e(%rip),%rax        # 3fd8 <_ITM_deregisterTMCloneTable>
    126a:	48 85 c0             	test   %rax,%rax
    126d:	74 09                	je     1278 <deregister_tm_clones+0x28>
    126f:	ff e0                	jmpq   *%rax
    1271:	0f 1f 80 00 00 00 00 	nopl   0x0(%rax)
    1278:	c3                   	retq   
    1279:	0f 1f 80 00 00 00 00 	nopl   0x0(%rax)

0000000000001280 <register_tm_clones>:
    1280:	48 8d 3d 89 2d 00 00 	lea    0x2d89(%rip),%rdi        # 4010 <__TMC_END__>
    1287:	48 8d 35 82 2d 00 00 	lea    0x2d82(%rip),%rsi        # 4010 <__TMC_END__>
    128e:	48 29 fe             	sub    %rdi,%rsi
    1291:	48 89 f0             	mov    %rsi,%rax
    1294:	48 c1 ee 3f          	shr    $0x3f,%rsi
    1298:	48 c1 f8 03          	sar    $0x3,%rax
    129c:	48 01 c6             	add    %rax,%rsi
    129f:	48 d1 fe             	sar    %rsi
    12a2:	74 14                	je     12b8 <register_tm_clones+0x38>
    12a4:	48 8b 05 45 2d 00 00 	mov    0x2d45(%rip),%rax        # 3ff0 <_ITM_registerTMCloneTable>
    12ab:	48 85 c0             	test   %rax,%rax
    12ae:	74 08                	je     12b8 <register_tm_clones+0x38>
    12b0:	ff e0                	jmpq   *%rax
    12b2:	66 0f 1f 44 00 00    	nopw   0x0(%rax,%rax,1)
    12b8:	c3                   	retq   
    12b9:	0f 1f 80 00 00 00 00 	nopl   0x0(%rax)

00000000000012c0 <__do_global_dtors_aux>:
    12c0:	f3 0f 1e fa          	endbr64 
    12c4:	80 3d 7d 2d 00 00 00 	cmpb   $0x0,0x2d7d(%rip)        # 4048 <completed.0>
    12cb:	75 2b                	jne    12f8 <__do_global_dtors_aux+0x38>
    12cd:	55                   	push   %rbp
    12ce:	48 83 3d 22 2d 00 00 	cmpq   $0x0,0x2d22(%rip)        # 3ff8 <__cxa_finalize@GLIBC_2.2.5>
    12d5:	00 
    12d6:	48 89 e5             	mov    %rsp,%rbp
    12d9:	74 0c                	je     12e7 <__do_global_dtors_aux+0x27>
    12db:	48 8b 3d 26 2d 00 00 	mov    0x2d26(%rip),%rdi        # 4008 <__dso_handle>
    12e2:	e8 b9 fd ff ff       	callq  10a0 <__cxa_finalize@plt>
    12e7:	e8 64 ff ff ff       	callq  1250 <deregister_tm_clones>
    12ec:	c6 05 55 2d 00 00 01 	movb   $0x1,0x2d55(%rip)        # 4048 <completed.0>
    12f3:	5d                   	pop    %rbp
    12f4:	c3                   	retq   
    12f5:	0f 1f 00             	nopl   (%rax)
    12f8:	c3                   	retq   
    12f9:	0f 1f 80 00 00 00 00 	nopl   0x0(%rax)

0000000000001300 <frame_dummy>:
    1300:	f3 0f 1e fa          	endbr64 
    1304:	e9 77 ff ff ff       	jmpq   1280 <register_tm_clones>
    1309:	0f 1f 80 00 00 00 00 	nopl   0x0(%rax)

0000000000001310 <__libc_csu_init>:
    1310:	f3 0f 1e fa          	endbr64 
    1314:	41 57                	push   %r15
    1316:	4c 8d 3d 6b 2a 00 00 	lea    0x2a6b(%rip),%r15        # 3d88 <__frame_dummy_init_array_entry>
    131d:	41 56                	push   %r14
    131f:	49 89 d6             	mov    %rdx,%r14
    1322:	41 55                	push   %r13
    1324:	49 89 f5             	mov    %rsi,%r13
    1327:	41 54                	push   %r12
    1329:	41 89 fc             	mov    %edi,%r12d
    132c:	55                   	push   %rbp
    132d:	48 8d 2d 5c 2a 00 00 	lea    0x2a5c(%rip),%rbp        # 3d90 <__do_global_dtors_aux_fini_array_entry>
    1334:	53                   	push   %rbx
    1335:	4c 29 fd             	sub    %r15,%rbp
    1338:	48 83 ec 08          	sub    $0x8,%rsp
    133c:	e8 bf fc ff ff       	callq  1000 <_init>
    1341:	48 c1 fd 03          	sar    $0x3,%rbp
    1345:	74 1f                	je     1366 <__libc_csu_init+0x56>
    1347:	31 db                	xor    %ebx,%ebx
    1349:	0f 1f 80 00 00 00 00 	nopl   0x0(%rax)
    1350:	4c 89 f2             	mov    %r14,%rdx
    1353:	4c 89 ee             	mov    %r13,%rsi
    1356:	44 89 e7             	mov    %r12d,%edi
    1359:	41 ff 14 df          	callq  *(%r15,%rbx,8)
    135d:	48 83 c3 01          	add    $0x1,%rbx
    1361:	48 39 dd             	cmp    %rbx,%rbp
    1364:	75 ea                	jne    1350 <__libc_csu_init+0x40>
    1366:	48 83 c4 08          	add    $0x8,%rsp
    136a:	5b                   	pop    %rbx
    136b:	5d                   	pop    %rbp
    136c:	41 5c                	pop    %r12
    136e:	41 5d                	pop    %r13
    1370:	41 5e                	pop    %r14
    1372:	41 5f                	pop    %r15
    1374:	c3                   	retq   
    1375:	66 66 2e 0f 1f 84 00 	data16 nopw %cs:0x0(%rax,%rax,1)
    137c:	00 00 00 00 

0000000000001380 <__libc_csu_fini>:
    1380:	f3 0f 1e fa          	endbr64 
    1384:	c3                   	retq   

Disassembly of section .fini:

0000000000001388 <_fini>:
    1388:	f3 0f 1e fa          	endbr64 
    138c:	48 83 ec 08          	sub    $0x8,%rsp
    1390:	48 83 c4 08          	add    $0x8,%rsp
    1394:	c3                   	retq   
