
/app/bin_gccgcc10_O2/2022_05_21-Lesson:     file format elf64-x86-64


Disassembly of section .init:

0000000000001000 <_init>:
    1000:	f3 0f 1e fa          	endbr64 
    1004:	48 83 ec 08          	sub    $0x8,%rsp
    1008:	48 8b 05 d9 2f 00 00 	mov    0x2fd9(%rip),%rax        # 3fe8 <__gmon_start__>
    100f:	48 85 c0             	test   %rax,%rax
    1012:	74 02                	je     1016 <_init+0x16>
    1014:	ff d0                	callq  *%rax
    1016:	48 83 c4 08          	add    $0x8,%rsp
    101a:	c3                   	retq   

Disassembly of section .plt:

0000000000001020 <.plt>:
    1020:	ff 35 8a 2f 00 00    	pushq  0x2f8a(%rip)        # 3fb0 <_GLOBAL_OFFSET_TABLE_+0x8>
    1026:	f2 ff 25 8b 2f 00 00 	bnd jmpq *0x2f8b(%rip)        # 3fb8 <_GLOBAL_OFFSET_TABLE_+0x10>
    102d:	0f 1f 00             	nopl   (%rax)
    1030:	f3 0f 1e fa          	endbr64 
    1034:	68 00 00 00 00       	pushq  $0x0
    1039:	f2 e9 e1 ff ff ff    	bnd jmpq 1020 <.plt>
    103f:	90                   	nop
    1040:	f3 0f 1e fa          	endbr64 
    1044:	68 01 00 00 00       	pushq  $0x1
    1049:	f2 e9 d1 ff ff ff    	bnd jmpq 1020 <.plt>
    104f:	90                   	nop
    1050:	f3 0f 1e fa          	endbr64 
    1054:	68 02 00 00 00       	pushq  $0x2
    1059:	f2 e9 c1 ff ff ff    	bnd jmpq 1020 <.plt>
    105f:	90                   	nop

Disassembly of section .plt.got:

0000000000001060 <__cxa_finalize@plt>:
    1060:	f3 0f 1e fa          	endbr64 
    1064:	f2 ff 25 8d 2f 00 00 	bnd jmpq *0x2f8d(%rip)        # 3ff8 <__cxa_finalize@GLIBC_2.2.5>
    106b:	0f 1f 44 00 00       	nopl   0x0(%rax,%rax,1)

Disassembly of section .plt.sec:

0000000000001070 <getpid@plt>:
    1070:	f3 0f 1e fa          	endbr64 
    1074:	f2 ff 25 45 2f 00 00 	bnd jmpq *0x2f45(%rip)        # 3fc0 <getpid@GLIBC_2.2.5>
    107b:	0f 1f 44 00 00       	nopl   0x0(%rax,%rax,1)

0000000000001080 <__printf_chk@plt>:
    1080:	f3 0f 1e fa          	endbr64 
    1084:	f2 ff 25 3d 2f 00 00 	bnd jmpq *0x2f3d(%rip)        # 3fc8 <__printf_chk@GLIBC_2.3.4>
    108b:	0f 1f 44 00 00       	nopl   0x0(%rax,%rax,1)

0000000000001090 <fork@plt>:
    1090:	f3 0f 1e fa          	endbr64 
    1094:	f2 ff 25 35 2f 00 00 	bnd jmpq *0x2f35(%rip)        # 3fd0 <fork@GLIBC_2.2.5>
    109b:	0f 1f 44 00 00       	nopl   0x0(%rax,%rax,1)

Disassembly of section .text:

00000000000010a0 <main>:
    10a0:	f3 0f 1e fa          	endbr64 
    10a4:	41 55                	push   %r13
    10a6:	41 54                	push   %r12
    10a8:	48 83 ec 08          	sub    $0x8,%rsp
    10ac:	e8 bf ff ff ff       	callq  1070 <getpid@plt>
    10b1:	41 89 c5             	mov    %eax,%r13d
    10b4:	e8 d7 ff ff ff       	callq  1090 <fork@plt>
    10b9:	e8 b2 ff ff ff       	callq  1070 <getpid@plt>
    10be:	41 39 c5             	cmp    %eax,%r13d
    10c1:	74 4a                	je     110d <main+0x6d>
    10c3:	41 89 c4             	mov    %eax,%r12d
    10c6:	e8 c5 ff ff ff       	callq  1090 <fork@plt>
    10cb:	e8 a0 ff ff ff       	callq  1070 <getpid@plt>
    10d0:	89 c2                	mov    %eax,%edx
    10d2:	41 39 c4             	cmp    %eax,%r12d
    10d5:	74 1e                	je     10f5 <main+0x55>
    10d7:	48 8d 35 4f 0f 00 00 	lea    0xf4f(%rip),%rsi        # 202d <_IO_stdin_used+0x2d>
    10de:	bf 01 00 00 00       	mov    $0x1,%edi
    10e3:	31 c0                	xor    %eax,%eax
    10e5:	e8 96 ff ff ff       	callq  1080 <__printf_chk@plt>
    10ea:	48 83 c4 08          	add    $0x8,%rsp
    10ee:	31 c0                	xor    %eax,%eax
    10f0:	41 5c                	pop    %r12
    10f2:	41 5d                	pop    %r13
    10f4:	c3                   	retq   
    10f5:	44 89 e2             	mov    %r12d,%edx
    10f8:	48 8d 35 1a 0f 00 00 	lea    0xf1a(%rip),%rsi        # 2019 <_IO_stdin_used+0x19>
    10ff:	bf 01 00 00 00       	mov    $0x1,%edi
    1104:	31 c0                	xor    %eax,%eax
    1106:	e8 75 ff ff ff       	callq  1080 <__printf_chk@plt>
    110b:	eb dd                	jmp    10ea <main+0x4a>
    110d:	44 89 ea             	mov    %r13d,%edx
    1110:	48 8d 35 ed 0e 00 00 	lea    0xeed(%rip),%rsi        # 2004 <_IO_stdin_used+0x4>
    1117:	bf 01 00 00 00       	mov    $0x1,%edi
    111c:	31 c0                	xor    %eax,%eax
    111e:	e8 5d ff ff ff       	callq  1080 <__printf_chk@plt>
    1123:	eb c5                	jmp    10ea <main+0x4a>
    1125:	66 2e 0f 1f 84 00 00 	nopw   %cs:0x0(%rax,%rax,1)
    112c:	00 00 00 
    112f:	90                   	nop

0000000000001130 <_start>:
    1130:	f3 0f 1e fa          	endbr64 
    1134:	31 ed                	xor    %ebp,%ebp
    1136:	49 89 d1             	mov    %rdx,%r9
    1139:	5e                   	pop    %rsi
    113a:	48 89 e2             	mov    %rsp,%rdx
    113d:	48 83 e4 f0          	and    $0xfffffffffffffff0,%rsp
    1141:	50                   	push   %rax
    1142:	54                   	push   %rsp
    1143:	4c 8d 05 46 01 00 00 	lea    0x146(%rip),%r8        # 1290 <__libc_csu_fini>
    114a:	48 8d 0d cf 00 00 00 	lea    0xcf(%rip),%rcx        # 1220 <__libc_csu_init>
    1151:	48 8d 3d 48 ff ff ff 	lea    -0xb8(%rip),%rdi        # 10a0 <main>
    1158:	ff 15 82 2e 00 00    	callq  *0x2e82(%rip)        # 3fe0 <__libc_start_main@GLIBC_2.2.5>
    115e:	f4                   	hlt    
    115f:	90                   	nop

0000000000001160 <deregister_tm_clones>:
    1160:	48 8d 3d a9 2e 00 00 	lea    0x2ea9(%rip),%rdi        # 4010 <__TMC_END__>
    1167:	48 8d 05 a2 2e 00 00 	lea    0x2ea2(%rip),%rax        # 4010 <__TMC_END__>
    116e:	48 39 f8             	cmp    %rdi,%rax
    1171:	74 15                	je     1188 <deregister_tm_clones+0x28>
    1173:	48 8b 05 5e 2e 00 00 	mov    0x2e5e(%rip),%rax        # 3fd8 <_ITM_deregisterTMCloneTable>
    117a:	48 85 c0             	test   %rax,%rax
    117d:	74 09                	je     1188 <deregister_tm_clones+0x28>
    117f:	ff e0                	jmpq   *%rax
    1181:	0f 1f 80 00 00 00 00 	nopl   0x0(%rax)
    1188:	c3                   	retq   
    1189:	0f 1f 80 00 00 00 00 	nopl   0x0(%rax)

0000000000001190 <register_tm_clones>:
    1190:	48 8d 3d 79 2e 00 00 	lea    0x2e79(%rip),%rdi        # 4010 <__TMC_END__>
    1197:	48 8d 35 72 2e 00 00 	lea    0x2e72(%rip),%rsi        # 4010 <__TMC_END__>
    119e:	48 29 fe             	sub    %rdi,%rsi
    11a1:	48 89 f0             	mov    %rsi,%rax
    11a4:	48 c1 ee 3f          	shr    $0x3f,%rsi
    11a8:	48 c1 f8 03          	sar    $0x3,%rax
    11ac:	48 01 c6             	add    %rax,%rsi
    11af:	48 d1 fe             	sar    %rsi
    11b2:	74 14                	je     11c8 <register_tm_clones+0x38>
    11b4:	48 8b 05 35 2e 00 00 	mov    0x2e35(%rip),%rax        # 3ff0 <_ITM_registerTMCloneTable>
    11bb:	48 85 c0             	test   %rax,%rax
    11be:	74 08                	je     11c8 <register_tm_clones+0x38>
    11c0:	ff e0                	jmpq   *%rax
    11c2:	66 0f 1f 44 00 00    	nopw   0x0(%rax,%rax,1)
    11c8:	c3                   	retq   
    11c9:	0f 1f 80 00 00 00 00 	nopl   0x0(%rax)

00000000000011d0 <__do_global_dtors_aux>:
    11d0:	f3 0f 1e fa          	endbr64 
    11d4:	80 3d 35 2e 00 00 00 	cmpb   $0x0,0x2e35(%rip)        # 4010 <__TMC_END__>
    11db:	75 2b                	jne    1208 <__do_global_dtors_aux+0x38>
    11dd:	55                   	push   %rbp
    11de:	48 83 3d 12 2e 00 00 	cmpq   $0x0,0x2e12(%rip)        # 3ff8 <__cxa_finalize@GLIBC_2.2.5>
    11e5:	00 
    11e6:	48 89 e5             	mov    %rsp,%rbp
    11e9:	74 0c                	je     11f7 <__do_global_dtors_aux+0x27>
    11eb:	48 8b 3d 16 2e 00 00 	mov    0x2e16(%rip),%rdi        # 4008 <__dso_handle>
    11f2:	e8 69 fe ff ff       	callq  1060 <__cxa_finalize@plt>
    11f7:	e8 64 ff ff ff       	callq  1160 <deregister_tm_clones>
    11fc:	c6 05 0d 2e 00 00 01 	movb   $0x1,0x2e0d(%rip)        # 4010 <__TMC_END__>
    1203:	5d                   	pop    %rbp
    1204:	c3                   	retq   
    1205:	0f 1f 00             	nopl   (%rax)
    1208:	c3                   	retq   
    1209:	0f 1f 80 00 00 00 00 	nopl   0x0(%rax)

0000000000001210 <frame_dummy>:
    1210:	f3 0f 1e fa          	endbr64 
    1214:	e9 77 ff ff ff       	jmpq   1190 <register_tm_clones>
    1219:	0f 1f 80 00 00 00 00 	nopl   0x0(%rax)

0000000000001220 <__libc_csu_init>:
    1220:	f3 0f 1e fa          	endbr64 
    1224:	41 57                	push   %r15
    1226:	4c 8d 3d 7b 2b 00 00 	lea    0x2b7b(%rip),%r15        # 3da8 <__frame_dummy_init_array_entry>
    122d:	41 56                	push   %r14
    122f:	49 89 d6             	mov    %rdx,%r14
    1232:	41 55                	push   %r13
    1234:	49 89 f5             	mov    %rsi,%r13
    1237:	41 54                	push   %r12
    1239:	41 89 fc             	mov    %edi,%r12d
    123c:	55                   	push   %rbp
    123d:	48 8d 2d 6c 2b 00 00 	lea    0x2b6c(%rip),%rbp        # 3db0 <__do_global_dtors_aux_fini_array_entry>
    1244:	53                   	push   %rbx
    1245:	4c 29 fd             	sub    %r15,%rbp
    1248:	48 83 ec 08          	sub    $0x8,%rsp
    124c:	e8 af fd ff ff       	callq  1000 <_init>
    1251:	48 c1 fd 03          	sar    $0x3,%rbp
    1255:	74 1f                	je     1276 <__libc_csu_init+0x56>
    1257:	31 db                	xor    %ebx,%ebx
    1259:	0f 1f 80 00 00 00 00 	nopl   0x0(%rax)
    1260:	4c 89 f2             	mov    %r14,%rdx
    1263:	4c 89 ee             	mov    %r13,%rsi
    1266:	44 89 e7             	mov    %r12d,%edi
    1269:	41 ff 14 df          	callq  *(%r15,%rbx,8)
    126d:	48 83 c3 01          	add    $0x1,%rbx
    1271:	48 39 dd             	cmp    %rbx,%rbp
    1274:	75 ea                	jne    1260 <__libc_csu_init+0x40>
    1276:	48 83 c4 08          	add    $0x8,%rsp
    127a:	5b                   	pop    %rbx
    127b:	5d                   	pop    %rbp
    127c:	41 5c                	pop    %r12
    127e:	41 5d                	pop    %r13
    1280:	41 5e                	pop    %r14
    1282:	41 5f                	pop    %r15
    1284:	c3                   	retq   
    1285:	66 66 2e 0f 1f 84 00 	data16 nopw %cs:0x0(%rax,%rax,1)
    128c:	00 00 00 00 

0000000000001290 <__libc_csu_fini>:
    1290:	f3 0f 1e fa          	endbr64 
    1294:	c3                   	retq   

Disassembly of section .fini:

0000000000001298 <_fini>:
    1298:	f3 0f 1e fa          	endbr64 
    129c:	48 83 ec 08          	sub    $0x8,%rsp
    12a0:	48 83 c4 08          	add    $0x8,%rsp
    12a4:	c3                   	retq   
