
/app/bin_gcc10_O0/2023_10_14-Lesson-a:     file format elf64-x86-64


Disassembly of section .init:

0000000000001000 <_init>:
    1000:	f3 0f 1e fa          	endbr64 
    1004:	48 83 ec 08          	sub    $0x8,%rsp
    1008:	48 8b 05 d9 2f 00 00 	mov    0x2fd9(%rip),%rax        # 3fe8 <__gmon_start__>
    100f:	48 85 c0             	test   %rax,%rax
    1012:	74 02                	je     1016 <_init+0x16>
    1014:	ff d0                	callq  *%rax
    1016:	48 83 c4 08          	add    $0x8,%rsp
    101a:	c3                   	retq   

Disassembly of section .plt:

0000000000001020 <.plt>:
    1020:	ff 35 62 2f 00 00    	pushq  0x2f62(%rip)        # 3f88 <_GLOBAL_OFFSET_TABLE_+0x8>
    1026:	f2 ff 25 63 2f 00 00 	bnd jmpq *0x2f63(%rip)        # 3f90 <_GLOBAL_OFFSET_TABLE_+0x10>
    102d:	0f 1f 00             	nopl   (%rax)
    1030:	f3 0f 1e fa          	endbr64 
    1034:	68 00 00 00 00       	pushq  $0x0
    1039:	f2 e9 e1 ff ff ff    	bnd jmpq 1020 <.plt>
    103f:	90                   	nop
    1040:	f3 0f 1e fa          	endbr64 
    1044:	68 01 00 00 00       	pushq  $0x1
    1049:	f2 e9 d1 ff ff ff    	bnd jmpq 1020 <.plt>
    104f:	90                   	nop
    1050:	f3 0f 1e fa          	endbr64 
    1054:	68 02 00 00 00       	pushq  $0x2
    1059:	f2 e9 c1 ff ff ff    	bnd jmpq 1020 <.plt>
    105f:	90                   	nop
    1060:	f3 0f 1e fa          	endbr64 
    1064:	68 03 00 00 00       	pushq  $0x3
    1069:	f2 e9 b1 ff ff ff    	bnd jmpq 1020 <.plt>
    106f:	90                   	nop
    1070:	f3 0f 1e fa          	endbr64 
    1074:	68 04 00 00 00       	pushq  $0x4
    1079:	f2 e9 a1 ff ff ff    	bnd jmpq 1020 <.plt>
    107f:	90                   	nop
    1080:	f3 0f 1e fa          	endbr64 
    1084:	68 05 00 00 00       	pushq  $0x5
    1089:	f2 e9 91 ff ff ff    	bnd jmpq 1020 <.plt>
    108f:	90                   	nop
    1090:	f3 0f 1e fa          	endbr64 
    1094:	68 06 00 00 00       	pushq  $0x6
    1099:	f2 e9 81 ff ff ff    	bnd jmpq 1020 <.plt>
    109f:	90                   	nop
    10a0:	f3 0f 1e fa          	endbr64 
    10a4:	68 07 00 00 00       	pushq  $0x7
    10a9:	f2 e9 71 ff ff ff    	bnd jmpq 1020 <.plt>
    10af:	90                   	nop

Disassembly of section .plt.got:

00000000000010b0 <__cxa_finalize@plt>:
    10b0:	f3 0f 1e fa          	endbr64 
    10b4:	f2 ff 25 3d 2f 00 00 	bnd jmpq *0x2f3d(%rip)        # 3ff8 <__cxa_finalize@GLIBC_2.2.5>
    10bb:	0f 1f 44 00 00       	nopl   0x0(%rax,%rax,1)

Disassembly of section .plt.sec:

00000000000010c0 <fclose@plt>:
    10c0:	f3 0f 1e fa          	endbr64 
    10c4:	f2 ff 25 cd 2e 00 00 	bnd jmpq *0x2ecd(%rip)        # 3f98 <fclose@GLIBC_2.2.5>
    10cb:	0f 1f 44 00 00       	nopl   0x0(%rax,%rax,1)

00000000000010d0 <__stack_chk_fail@plt>:
    10d0:	f3 0f 1e fa          	endbr64 
    10d4:	f2 ff 25 c5 2e 00 00 	bnd jmpq *0x2ec5(%rip)        # 3fa0 <__stack_chk_fail@GLIBC_2.4>
    10db:	0f 1f 44 00 00       	nopl   0x0(%rax,%rax,1)

00000000000010e0 <printf@plt>:
    10e0:	f3 0f 1e fa          	endbr64 
    10e4:	f2 ff 25 bd 2e 00 00 	bnd jmpq *0x2ebd(%rip)        # 3fa8 <printf@GLIBC_2.2.5>
    10eb:	0f 1f 44 00 00       	nopl   0x0(%rax,%rax,1)

00000000000010f0 <fgets@plt>:
    10f0:	f3 0f 1e fa          	endbr64 
    10f4:	f2 ff 25 b5 2e 00 00 	bnd jmpq *0x2eb5(%rip)        # 3fb0 <fgets@GLIBC_2.2.5>
    10fb:	0f 1f 44 00 00       	nopl   0x0(%rax,%rax,1)

0000000000001100 <fprintf@plt>:
    1100:	f3 0f 1e fa          	endbr64 
    1104:	f2 ff 25 ad 2e 00 00 	bnd jmpq *0x2ead(%rip)        # 3fb8 <fprintf@GLIBC_2.2.5>
    110b:	0f 1f 44 00 00       	nopl   0x0(%rax,%rax,1)

0000000000001110 <feof@plt>:
    1110:	f3 0f 1e fa          	endbr64 
    1114:	f2 ff 25 a5 2e 00 00 	bnd jmpq *0x2ea5(%rip)        # 3fc0 <feof@GLIBC_2.2.5>
    111b:	0f 1f 44 00 00       	nopl   0x0(%rax,%rax,1)

0000000000001120 <fopen@plt>:
    1120:	f3 0f 1e fa          	endbr64 
    1124:	f2 ff 25 9d 2e 00 00 	bnd jmpq *0x2e9d(%rip)        # 3fc8 <fopen@GLIBC_2.2.5>
    112b:	0f 1f 44 00 00       	nopl   0x0(%rax,%rax,1)

0000000000001130 <exit@plt>:
    1130:	f3 0f 1e fa          	endbr64 
    1134:	f2 ff 25 95 2e 00 00 	bnd jmpq *0x2e95(%rip)        # 3fd0 <exit@GLIBC_2.2.5>
    113b:	0f 1f 44 00 00       	nopl   0x0(%rax,%rax,1)

Disassembly of section .text:

0000000000001140 <_start>:
    1140:	f3 0f 1e fa          	endbr64 
    1144:	31 ed                	xor    %ebp,%ebp
    1146:	49 89 d1             	mov    %rdx,%r9
    1149:	5e                   	pop    %rsi
    114a:	48 89 e2             	mov    %rsp,%rdx
    114d:	48 83 e4 f0          	and    $0xfffffffffffffff0,%rsp
    1151:	50                   	push   %rax
    1152:	54                   	push   %rsp
    1153:	4c 8d 05 46 02 00 00 	lea    0x246(%rip),%r8        # 13a0 <__libc_csu_fini>
    115a:	48 8d 0d cf 01 00 00 	lea    0x1cf(%rip),%rcx        # 1330 <__libc_csu_init>
    1161:	48 8d 3d c1 00 00 00 	lea    0xc1(%rip),%rdi        # 1229 <main>
    1168:	ff 15 72 2e 00 00    	callq  *0x2e72(%rip)        # 3fe0 <__libc_start_main@GLIBC_2.2.5>
    116e:	f4                   	hlt    
    116f:	90                   	nop

0000000000001170 <deregister_tm_clones>:
    1170:	48 8d 3d 99 2e 00 00 	lea    0x2e99(%rip),%rdi        # 4010 <__TMC_END__>
    1177:	48 8d 05 92 2e 00 00 	lea    0x2e92(%rip),%rax        # 4010 <__TMC_END__>
    117e:	48 39 f8             	cmp    %rdi,%rax
    1181:	74 15                	je     1198 <deregister_tm_clones+0x28>
    1183:	48 8b 05 4e 2e 00 00 	mov    0x2e4e(%rip),%rax        # 3fd8 <_ITM_deregisterTMCloneTable>
    118a:	48 85 c0             	test   %rax,%rax
    118d:	74 09                	je     1198 <deregister_tm_clones+0x28>
    118f:	ff e0                	jmpq   *%rax
    1191:	0f 1f 80 00 00 00 00 	nopl   0x0(%rax)
    1198:	c3                   	retq   
    1199:	0f 1f 80 00 00 00 00 	nopl   0x0(%rax)

00000000000011a0 <register_tm_clones>:
    11a0:	48 8d 3d 69 2e 00 00 	lea    0x2e69(%rip),%rdi        # 4010 <__TMC_END__>
    11a7:	48 8d 35 62 2e 00 00 	lea    0x2e62(%rip),%rsi        # 4010 <__TMC_END__>
    11ae:	48 29 fe             	sub    %rdi,%rsi
    11b1:	48 89 f0             	mov    %rsi,%rax
    11b4:	48 c1 ee 3f          	shr    $0x3f,%rsi
    11b8:	48 c1 f8 03          	sar    $0x3,%rax
    11bc:	48 01 c6             	add    %rax,%rsi
    11bf:	48 d1 fe             	sar    %rsi
    11c2:	74 14                	je     11d8 <register_tm_clones+0x38>
    11c4:	48 8b 05 25 2e 00 00 	mov    0x2e25(%rip),%rax        # 3ff0 <_ITM_registerTMCloneTable>
    11cb:	48 85 c0             	test   %rax,%rax
    11ce:	74 08                	je     11d8 <register_tm_clones+0x38>
    11d0:	ff e0                	jmpq   *%rax
    11d2:	66 0f 1f 44 00 00    	nopw   0x0(%rax,%rax,1)
    11d8:	c3                   	retq   
    11d9:	0f 1f 80 00 00 00 00 	nopl   0x0(%rax)

00000000000011e0 <__do_global_dtors_aux>:
    11e0:	f3 0f 1e fa          	endbr64 
    11e4:	80 3d 3d 2e 00 00 00 	cmpb   $0x0,0x2e3d(%rip)        # 4028 <completed.0>
    11eb:	75 2b                	jne    1218 <__do_global_dtors_aux+0x38>
    11ed:	55                   	push   %rbp
    11ee:	48 83 3d 02 2e 00 00 	cmpq   $0x0,0x2e02(%rip)        # 3ff8 <__cxa_finalize@GLIBC_2.2.5>
    11f5:	00 
    11f6:	48 89 e5             	mov    %rsp,%rbp
    11f9:	74 0c                	je     1207 <__do_global_dtors_aux+0x27>
    11fb:	48 8b 3d 06 2e 00 00 	mov    0x2e06(%rip),%rdi        # 4008 <__dso_handle>
    1202:	e8 a9 fe ff ff       	callq  10b0 <__cxa_finalize@plt>
    1207:	e8 64 ff ff ff       	callq  1170 <deregister_tm_clones>
    120c:	c6 05 15 2e 00 00 01 	movb   $0x1,0x2e15(%rip)        # 4028 <completed.0>
    1213:	5d                   	pop    %rbp
    1214:	c3                   	retq   
    1215:	0f 1f 00             	nopl   (%rax)
    1218:	c3                   	retq   
    1219:	0f 1f 80 00 00 00 00 	nopl   0x0(%rax)

0000000000001220 <frame_dummy>:
    1220:	f3 0f 1e fa          	endbr64 
    1224:	e9 77 ff ff ff       	jmpq   11a0 <register_tm_clones>

0000000000001229 <main>:
    1229:	f3 0f 1e fa          	endbr64 
    122d:	55                   	push   %rbp
    122e:	48 89 e5             	mov    %rsp,%rbp
    1231:	48 83 ec 50          	sub    $0x50,%rsp
    1235:	64 48 8b 04 25 28 00 	mov    %fs:0x28,%rax
    123c:	00 00 
    123e:	48 89 45 f8          	mov    %rax,-0x8(%rbp)
    1242:	31 c0                	xor    %eax,%eax
    1244:	48 8d 35 bd 0d 00 00 	lea    0xdbd(%rip),%rsi        # 2008 <_IO_stdin_used+0x8>
    124b:	48 8d 3d b8 0d 00 00 	lea    0xdb8(%rip),%rdi        # 200a <_IO_stdin_used+0xa>
    1252:	e8 c9 fe ff ff       	callq  1120 <fopen@plt>
    1257:	48 89 45 c0          	mov    %rax,-0x40(%rbp)
    125b:	48 83 7d c0 00       	cmpq   $0x0,-0x40(%rbp)
    1260:	75 2c                	jne    128e <main+0x65>
    1262:	48 8b 05 b7 2d 00 00 	mov    0x2db7(%rip),%rax        # 4020 <stderr@@GLIBC_2.2.5>
    1269:	48 8d 15 9a 0d 00 00 	lea    0xd9a(%rip),%rdx        # 200a <_IO_stdin_used+0xa>
    1270:	48 8d 35 a9 0d 00 00 	lea    0xda9(%rip),%rsi        # 2020 <_IO_stdin_used+0x20>
    1277:	48 89 c7             	mov    %rax,%rdi
    127a:	b8 00 00 00 00       	mov    $0x0,%eax
    127f:	e8 7c fe ff ff       	callq  1100 <fprintf@plt>
    1284:	bf 01 00 00 00       	mov    $0x1,%edi
    1289:	e8 a2 fe ff ff       	callq  1130 <exit@plt>
    128e:	c7 45 bc 00 00 00 00 	movl   $0x0,-0x44(%rbp)
    1295:	eb 3c                	jmp    12d3 <main+0xaa>
    1297:	48 8b 55 c0          	mov    -0x40(%rbp),%rdx
    129b:	48 8d 45 d0          	lea    -0x30(%rbp),%rax
    129f:	be 20 00 00 00       	mov    $0x20,%esi
    12a4:	48 89 c7             	mov    %rax,%rdi
    12a7:	e8 44 fe ff ff       	callq  10f0 <fgets@plt>
    12ac:	48 89 45 c8          	mov    %rax,-0x38(%rbp)
    12b0:	48 83 7d c8 00       	cmpq   $0x0,-0x38(%rbp)
    12b5:	74 2e                	je     12e5 <main+0xbc>
    12b7:	48 8d 45 d0          	lea    -0x30(%rbp),%rax
    12bb:	48 89 c6             	mov    %rax,%rsi
    12be:	48 8d 3d 6e 0d 00 00 	lea    0xd6e(%rip),%rdi        # 2033 <_IO_stdin_used+0x33>
    12c5:	b8 00 00 00 00       	mov    $0x0,%eax
    12ca:	e8 11 fe ff ff       	callq  10e0 <printf@plt>
    12cf:	83 45 bc 01          	addl   $0x1,-0x44(%rbp)
    12d3:	48 8b 45 c0          	mov    -0x40(%rbp),%rax
    12d7:	48 89 c7             	mov    %rax,%rdi
    12da:	e8 31 fe ff ff       	callq  1110 <feof@plt>
    12df:	85 c0                	test   %eax,%eax
    12e1:	74 b4                	je     1297 <main+0x6e>
    12e3:	eb 01                	jmp    12e6 <main+0xbd>
    12e5:	90                   	nop
    12e6:	8b 45 bc             	mov    -0x44(%rbp),%eax
    12e9:	89 c6                	mov    %eax,%esi
    12eb:	48 8d 3d 46 0d 00 00 	lea    0xd46(%rip),%rdi        # 2038 <_IO_stdin_used+0x38>
    12f2:	b8 00 00 00 00       	mov    $0x0,%eax
    12f7:	e8 e4 fd ff ff       	callq  10e0 <printf@plt>
    12fc:	48 8b 45 c0          	mov    -0x40(%rbp),%rax
    1300:	48 89 c7             	mov    %rax,%rdi
    1303:	e8 b8 fd ff ff       	callq  10c0 <fclose@plt>
    1308:	b8 00 00 00 00       	mov    $0x0,%eax
    130d:	48 8b 4d f8          	mov    -0x8(%rbp),%rcx
    1311:	64 48 2b 0c 25 28 00 	sub    %fs:0x28,%rcx
    1318:	00 00 
    131a:	74 05                	je     1321 <main+0xf8>
    131c:	e8 af fd ff ff       	callq  10d0 <__stack_chk_fail@plt>
    1321:	c9                   	leaveq 
    1322:	c3                   	retq   
    1323:	66 2e 0f 1f 84 00 00 	nopw   %cs:0x0(%rax,%rax,1)
    132a:	00 00 00 
    132d:	0f 1f 00             	nopl   (%rax)

0000000000001330 <__libc_csu_init>:
    1330:	f3 0f 1e fa          	endbr64 
    1334:	41 57                	push   %r15
    1336:	4c 8d 3d 43 2a 00 00 	lea    0x2a43(%rip),%r15        # 3d80 <__frame_dummy_init_array_entry>
    133d:	41 56                	push   %r14
    133f:	49 89 d6             	mov    %rdx,%r14
    1342:	41 55                	push   %r13
    1344:	49 89 f5             	mov    %rsi,%r13
    1347:	41 54                	push   %r12
    1349:	41 89 fc             	mov    %edi,%r12d
    134c:	55                   	push   %rbp
    134d:	48 8d 2d 34 2a 00 00 	lea    0x2a34(%rip),%rbp        # 3d88 <__do_global_dtors_aux_fini_array_entry>
    1354:	53                   	push   %rbx
    1355:	4c 29 fd             	sub    %r15,%rbp
    1358:	48 83 ec 08          	sub    $0x8,%rsp
    135c:	e8 9f fc ff ff       	callq  1000 <_init>
    1361:	48 c1 fd 03          	sar    $0x3,%rbp
    1365:	74 1f                	je     1386 <__libc_csu_init+0x56>
    1367:	31 db                	xor    %ebx,%ebx
    1369:	0f 1f 80 00 00 00 00 	nopl   0x0(%rax)
    1370:	4c 89 f2             	mov    %r14,%rdx
    1373:	4c 89 ee             	mov    %r13,%rsi
    1376:	44 89 e7             	mov    %r12d,%edi
    1379:	41 ff 14 df          	callq  *(%r15,%rbx,8)
    137d:	48 83 c3 01          	add    $0x1,%rbx
    1381:	48 39 dd             	cmp    %rbx,%rbp
    1384:	75 ea                	jne    1370 <__libc_csu_init+0x40>
    1386:	48 83 c4 08          	add    $0x8,%rsp
    138a:	5b                   	pop    %rbx
    138b:	5d                   	pop    %rbp
    138c:	41 5c                	pop    %r12
    138e:	41 5d                	pop    %r13
    1390:	41 5e                	pop    %r14
    1392:	41 5f                	pop    %r15
    1394:	c3                   	retq   
    1395:	66 66 2e 0f 1f 84 00 	data16 nopw %cs:0x0(%rax,%rax,1)
    139c:	00 00 00 00 

00000000000013a0 <__libc_csu_fini>:
    13a0:	f3 0f 1e fa          	endbr64 
    13a4:	c3                   	retq   

Disassembly of section .fini:

00000000000013a8 <_fini>:
    13a8:	f3 0f 1e fa          	endbr64 
    13ac:	48 83 ec 08          	sub    $0x8,%rsp
    13b0:	48 83 c4 08          	add    $0x8,%rsp
    13b4:	c3                   	retq   
