
/app/bin_gccgcc9_O1/filter03:     file format elf64-x86-64


Disassembly of section .init:

0000000000001000 <_init>:
    1000:	f3 0f 1e fa          	endbr64 
    1004:	48 83 ec 08          	sub    $0x8,%rsp
    1008:	48 8b 05 d9 2f 00 00 	mov    0x2fd9(%rip),%rax        # 3fe8 <__gmon_start__>
    100f:	48 85 c0             	test   %rax,%rax
    1012:	74 02                	je     1016 <_init+0x16>
    1014:	ff d0                	callq  *%rax
    1016:	48 83 c4 08          	add    $0x8,%rsp
    101a:	c3                   	retq   

Disassembly of section .plt:

0000000000001020 <.plt>:
    1020:	ff 35 6a 2f 00 00    	pushq  0x2f6a(%rip)        # 3f90 <_GLOBAL_OFFSET_TABLE_+0x8>
    1026:	f2 ff 25 6b 2f 00 00 	bnd jmpq *0x2f6b(%rip)        # 3f98 <_GLOBAL_OFFSET_TABLE_+0x10>
    102d:	0f 1f 00             	nopl   (%rax)
    1030:	f3 0f 1e fa          	endbr64 
    1034:	68 00 00 00 00       	pushq  $0x0
    1039:	f2 e9 e1 ff ff ff    	bnd jmpq 1020 <.plt>
    103f:	90                   	nop
    1040:	f3 0f 1e fa          	endbr64 
    1044:	68 01 00 00 00       	pushq  $0x1
    1049:	f2 e9 d1 ff ff ff    	bnd jmpq 1020 <.plt>
    104f:	90                   	nop
    1050:	f3 0f 1e fa          	endbr64 
    1054:	68 02 00 00 00       	pushq  $0x2
    1059:	f2 e9 c1 ff ff ff    	bnd jmpq 1020 <.plt>
    105f:	90                   	nop
    1060:	f3 0f 1e fa          	endbr64 
    1064:	68 03 00 00 00       	pushq  $0x3
    1069:	f2 e9 b1 ff ff ff    	bnd jmpq 1020 <.plt>
    106f:	90                   	nop
    1070:	f3 0f 1e fa          	endbr64 
    1074:	68 04 00 00 00       	pushq  $0x4
    1079:	f2 e9 a1 ff ff ff    	bnd jmpq 1020 <.plt>
    107f:	90                   	nop
    1080:	f3 0f 1e fa          	endbr64 
    1084:	68 05 00 00 00       	pushq  $0x5
    1089:	f2 e9 91 ff ff ff    	bnd jmpq 1020 <.plt>
    108f:	90                   	nop
    1090:	f3 0f 1e fa          	endbr64 
    1094:	68 06 00 00 00       	pushq  $0x6
    1099:	f2 e9 81 ff ff ff    	bnd jmpq 1020 <.plt>
    109f:	90                   	nop

Disassembly of section .plt.got:

00000000000010a0 <__cxa_finalize@plt>:
    10a0:	f3 0f 1e fa          	endbr64 
    10a4:	f2 ff 25 4d 2f 00 00 	bnd jmpq *0x2f4d(%rip)        # 3ff8 <__cxa_finalize@GLIBC_2.2.5>
    10ab:	0f 1f 44 00 00       	nopl   0x0(%rax,%rax,1)

Disassembly of section .plt.sec:

00000000000010b0 <__ctype_toupper_loc@plt>:
    10b0:	f3 0f 1e fa          	endbr64 
    10b4:	f2 ff 25 e5 2e 00 00 	bnd jmpq *0x2ee5(%rip)        # 3fa0 <__ctype_toupper_loc@GLIBC_2.3>
    10bb:	0f 1f 44 00 00       	nopl   0x0(%rax,%rax,1)

00000000000010c0 <srand@plt>:
    10c0:	f3 0f 1e fa          	endbr64 
    10c4:	f2 ff 25 dd 2e 00 00 	bnd jmpq *0x2edd(%rip)        # 3fa8 <srand@GLIBC_2.2.5>
    10cb:	0f 1f 44 00 00       	nopl   0x0(%rax,%rax,1)

00000000000010d0 <putc@plt>:
    10d0:	f3 0f 1e fa          	endbr64 
    10d4:	f2 ff 25 d5 2e 00 00 	bnd jmpq *0x2ed5(%rip)        # 3fb0 <putc@GLIBC_2.2.5>
    10db:	0f 1f 44 00 00       	nopl   0x0(%rax,%rax,1)

00000000000010e0 <time@plt>:
    10e0:	f3 0f 1e fa          	endbr64 
    10e4:	f2 ff 25 cd 2e 00 00 	bnd jmpq *0x2ecd(%rip)        # 3fb8 <time@GLIBC_2.2.5>
    10eb:	0f 1f 44 00 00       	nopl   0x0(%rax,%rax,1)

00000000000010f0 <getc@plt>:
    10f0:	f3 0f 1e fa          	endbr64 
    10f4:	f2 ff 25 c5 2e 00 00 	bnd jmpq *0x2ec5(%rip)        # 3fc0 <getc@GLIBC_2.2.5>
    10fb:	0f 1f 44 00 00       	nopl   0x0(%rax,%rax,1)

0000000000001100 <rand@plt>:
    1100:	f3 0f 1e fa          	endbr64 
    1104:	f2 ff 25 bd 2e 00 00 	bnd jmpq *0x2ebd(%rip)        # 3fc8 <rand@GLIBC_2.2.5>
    110b:	0f 1f 44 00 00       	nopl   0x0(%rax,%rax,1)

0000000000001110 <__ctype_tolower_loc@plt>:
    1110:	f3 0f 1e fa          	endbr64 
    1114:	f2 ff 25 b5 2e 00 00 	bnd jmpq *0x2eb5(%rip)        # 3fd0 <__ctype_tolower_loc@GLIBC_2.3>
    111b:	0f 1f 44 00 00       	nopl   0x0(%rax,%rax,1)

Disassembly of section .text:

0000000000001120 <_start>:
    1120:	f3 0f 1e fa          	endbr64 
    1124:	31 ed                	xor    %ebp,%ebp
    1126:	49 89 d1             	mov    %rdx,%r9
    1129:	5e                   	pop    %rsi
    112a:	48 89 e2             	mov    %rsp,%rdx
    112d:	48 83 e4 f0          	and    $0xfffffffffffffff0,%rsp
    1131:	50                   	push   %rax
    1132:	54                   	push   %rsp
    1133:	4c 8d 05 d6 01 00 00 	lea    0x1d6(%rip),%r8        # 1310 <__libc_csu_fini>
    113a:	48 8d 0d 5f 01 00 00 	lea    0x15f(%rip),%rcx        # 12a0 <__libc_csu_init>
    1141:	48 8d 3d c1 00 00 00 	lea    0xc1(%rip),%rdi        # 1209 <main>
    1148:	ff 15 92 2e 00 00    	callq  *0x2e92(%rip)        # 3fe0 <__libc_start_main@GLIBC_2.2.5>
    114e:	f4                   	hlt    
    114f:	90                   	nop

0000000000001150 <deregister_tm_clones>:
    1150:	48 8d 3d b9 2e 00 00 	lea    0x2eb9(%rip),%rdi        # 4010 <stdout@@GLIBC_2.2.5>
    1157:	48 8d 05 b2 2e 00 00 	lea    0x2eb2(%rip),%rax        # 4010 <stdout@@GLIBC_2.2.5>
    115e:	48 39 f8             	cmp    %rdi,%rax
    1161:	74 15                	je     1178 <deregister_tm_clones+0x28>
    1163:	48 8b 05 6e 2e 00 00 	mov    0x2e6e(%rip),%rax        # 3fd8 <_ITM_deregisterTMCloneTable>
    116a:	48 85 c0             	test   %rax,%rax
    116d:	74 09                	je     1178 <deregister_tm_clones+0x28>
    116f:	ff e0                	jmpq   *%rax
    1171:	0f 1f 80 00 00 00 00 	nopl   0x0(%rax)
    1178:	c3                   	retq   
    1179:	0f 1f 80 00 00 00 00 	nopl   0x0(%rax)

0000000000001180 <register_tm_clones>:
    1180:	48 8d 3d 89 2e 00 00 	lea    0x2e89(%rip),%rdi        # 4010 <stdout@@GLIBC_2.2.5>
    1187:	48 8d 35 82 2e 00 00 	lea    0x2e82(%rip),%rsi        # 4010 <stdout@@GLIBC_2.2.5>
    118e:	48 29 fe             	sub    %rdi,%rsi
    1191:	48 89 f0             	mov    %rsi,%rax
    1194:	48 c1 ee 3f          	shr    $0x3f,%rsi
    1198:	48 c1 f8 03          	sar    $0x3,%rax
    119c:	48 01 c6             	add    %rax,%rsi
    119f:	48 d1 fe             	sar    %rsi
    11a2:	74 14                	je     11b8 <register_tm_clones+0x38>
    11a4:	48 8b 05 45 2e 00 00 	mov    0x2e45(%rip),%rax        # 3ff0 <_ITM_registerTMCloneTable>
    11ab:	48 85 c0             	test   %rax,%rax
    11ae:	74 08                	je     11b8 <register_tm_clones+0x38>
    11b0:	ff e0                	jmpq   *%rax
    11b2:	66 0f 1f 44 00 00    	nopw   0x0(%rax,%rax,1)
    11b8:	c3                   	retq   
    11b9:	0f 1f 80 00 00 00 00 	nopl   0x0(%rax)

00000000000011c0 <__do_global_dtors_aux>:
    11c0:	f3 0f 1e fa          	endbr64 
    11c4:	80 3d 5d 2e 00 00 00 	cmpb   $0x0,0x2e5d(%rip)        # 4028 <completed.0>
    11cb:	75 2b                	jne    11f8 <__do_global_dtors_aux+0x38>
    11cd:	55                   	push   %rbp
    11ce:	48 83 3d 22 2e 00 00 	cmpq   $0x0,0x2e22(%rip)        # 3ff8 <__cxa_finalize@GLIBC_2.2.5>
    11d5:	00 
    11d6:	48 89 e5             	mov    %rsp,%rbp
    11d9:	74 0c                	je     11e7 <__do_global_dtors_aux+0x27>
    11db:	48 8b 3d 26 2e 00 00 	mov    0x2e26(%rip),%rdi        # 4008 <__dso_handle>
    11e2:	e8 b9 fe ff ff       	callq  10a0 <__cxa_finalize@plt>
    11e7:	e8 64 ff ff ff       	callq  1150 <deregister_tm_clones>
    11ec:	c6 05 35 2e 00 00 01 	movb   $0x1,0x2e35(%rip)        # 4028 <completed.0>
    11f3:	5d                   	pop    %rbp
    11f4:	c3                   	retq   
    11f5:	0f 1f 00             	nopl   (%rax)
    11f8:	c3                   	retq   
    11f9:	0f 1f 80 00 00 00 00 	nopl   0x0(%rax)

0000000000001200 <frame_dummy>:
    1200:	f3 0f 1e fa          	endbr64 
    1204:	e9 77 ff ff ff       	jmpq   1180 <register_tm_clones>

0000000000001209 <main>:
    1209:	f3 0f 1e fa          	endbr64 
    120d:	53                   	push   %rbx
    120e:	bf 00 00 00 00       	mov    $0x0,%edi
    1213:	e8 c8 fe ff ff       	callq  10e0 <time@plt>
    1218:	48 89 c7             	mov    %rax,%rdi
    121b:	e8 a0 fe ff ff       	callq  10c0 <srand@plt>
    1220:	eb 0e                	jmp    1230 <main+0x27>
    1222:	48 8b 35 e7 2d 00 00 	mov    0x2de7(%rip),%rsi        # 4010 <stdout@@GLIBC_2.2.5>
    1229:	89 df                	mov    %ebx,%edi
    122b:	e8 a0 fe ff ff       	callq  10d0 <putc@plt>
    1230:	48 8b 3d e9 2d 00 00 	mov    0x2de9(%rip),%rdi        # 4020 <stdin@@GLIBC_2.2.5>
    1237:	e8 b4 fe ff ff       	callq  10f0 <getc@plt>
    123c:	89 c3                	mov    %eax,%ebx
    123e:	83 f8 ff             	cmp    $0xffffffff,%eax
    1241:	74 51                	je     1294 <main+0x8b>
    1243:	e8 b8 fe ff ff       	callq  1100 <rand@plt>
    1248:	a8 01                	test   $0x1,%al
    124a:	74 1d                	je     1269 <main+0x60>
    124c:	8d 83 80 00 00 00    	lea    0x80(%rbx),%eax
    1252:	3d 7f 01 00 00       	cmp    $0x17f,%eax
    1257:	77 c9                	ja     1222 <main+0x19>
    1259:	e8 52 fe ff ff       	callq  10b0 <__ctype_toupper_loc@plt>
    125e:	48 63 db             	movslq %ebx,%rbx
    1261:	48 8b 00             	mov    (%rax),%rax
    1264:	8b 1c 98             	mov    (%rax,%rbx,4),%ebx
    1267:	eb b9                	jmp    1222 <main+0x19>
    1269:	8d 83 80 00 00 00    	lea    0x80(%rbx),%eax
    126f:	3d 7f 01 00 00       	cmp    $0x17f,%eax
    1274:	77 0e                	ja     1284 <main+0x7b>
    1276:	e8 95 fe ff ff       	callq  1110 <__ctype_tolower_loc@plt>
    127b:	48 63 db             	movslq %ebx,%rbx
    127e:	48 8b 00             	mov    (%rax),%rax
    1281:	8b 1c 98             	mov    (%rax,%rbx,4),%ebx
    1284:	48 8b 35 85 2d 00 00 	mov    0x2d85(%rip),%rsi        # 4010 <stdout@@GLIBC_2.2.5>
    128b:	89 df                	mov    %ebx,%edi
    128d:	e8 3e fe ff ff       	callq  10d0 <putc@plt>
    1292:	eb 9c                	jmp    1230 <main+0x27>
    1294:	b8 00 00 00 00       	mov    $0x0,%eax
    1299:	5b                   	pop    %rbx
    129a:	c3                   	retq   
    129b:	0f 1f 44 00 00       	nopl   0x0(%rax,%rax,1)

00000000000012a0 <__libc_csu_init>:
    12a0:	f3 0f 1e fa          	endbr64 
    12a4:	41 57                	push   %r15
    12a6:	4c 8d 3d db 2a 00 00 	lea    0x2adb(%rip),%r15        # 3d88 <__frame_dummy_init_array_entry>
    12ad:	41 56                	push   %r14
    12af:	49 89 d6             	mov    %rdx,%r14
    12b2:	41 55                	push   %r13
    12b4:	49 89 f5             	mov    %rsi,%r13
    12b7:	41 54                	push   %r12
    12b9:	41 89 fc             	mov    %edi,%r12d
    12bc:	55                   	push   %rbp
    12bd:	48 8d 2d cc 2a 00 00 	lea    0x2acc(%rip),%rbp        # 3d90 <__do_global_dtors_aux_fini_array_entry>
    12c4:	53                   	push   %rbx
    12c5:	4c 29 fd             	sub    %r15,%rbp
    12c8:	48 83 ec 08          	sub    $0x8,%rsp
    12cc:	e8 2f fd ff ff       	callq  1000 <_init>
    12d1:	48 c1 fd 03          	sar    $0x3,%rbp
    12d5:	74 1f                	je     12f6 <__libc_csu_init+0x56>
    12d7:	31 db                	xor    %ebx,%ebx
    12d9:	0f 1f 80 00 00 00 00 	nopl   0x0(%rax)
    12e0:	4c 89 f2             	mov    %r14,%rdx
    12e3:	4c 89 ee             	mov    %r13,%rsi
    12e6:	44 89 e7             	mov    %r12d,%edi
    12e9:	41 ff 14 df          	callq  *(%r15,%rbx,8)
    12ed:	48 83 c3 01          	add    $0x1,%rbx
    12f1:	48 39 dd             	cmp    %rbx,%rbp
    12f4:	75 ea                	jne    12e0 <__libc_csu_init+0x40>
    12f6:	48 83 c4 08          	add    $0x8,%rsp
    12fa:	5b                   	pop    %rbx
    12fb:	5d                   	pop    %rbp
    12fc:	41 5c                	pop    %r12
    12fe:	41 5d                	pop    %r13
    1300:	41 5e                	pop    %r14
    1302:	41 5f                	pop    %r15
    1304:	c3                   	retq   
    1305:	66 66 2e 0f 1f 84 00 	data16 nopw %cs:0x0(%rax,%rax,1)
    130c:	00 00 00 00 

0000000000001310 <__libc_csu_fini>:
    1310:	f3 0f 1e fa          	endbr64 
    1314:	c3                   	retq   

Disassembly of section .fini:

0000000000001318 <_fini>:
    1318:	f3 0f 1e fa          	endbr64 
    131c:	48 83 ec 08          	sub    $0x8,%rsp
    1320:	48 83 c4 08          	add    $0x8,%rsp
    1324:	c3                   	retq   
